(lp0
(I18226
I116
I124
I28
I58
I85
I169
I80
I48
I72
I300
I58
I97
I21
I298
I64
I31
I26
I20
I57
I87
I87
I86
I56
I46
I89
I99
I131
I115
I91
I61
I170
I23
I41
I16
I34
I103
I106
I3260
I485
I293
I62
I32
I179
I588
I361
I23
I91
I423
I85
I10
I117
I115
I259
I37
I131
I91
I40
I77
I49
I59
I165
I282
I73
I93
I93
I7
I154
I130
I29
I37
I176
I27
I20
I127
I74
I52
I277
I136
I111
I227
I47
I42
I92
I187
I90
I95
I190
I99
I289
I20
I212
I435
I141
I107
I2234
I361
I858
I526
I7
tp1
a(I18215
I50
I105
I91
I83
I81
I115
I145
I12
I24
I174
I32
I216
I35
I182
I50
I38
I21
I15
I104
I170
I200
I179
I59
I73
I101
I18
I62
I364
I1195
I694
I59
I620
I62
I12
I465
I70
I373
I491
I85
I731
I6
I77
I137
I298
I114
I35
I96
I108
I118
I46
I152
I33
I45
I11
I76
I241
I30
I93
I52
I29
I42
I28
I52
I75
I35
I29
I37
I21
I52
I16
I22
I38
I32
I383
I106
I98
I57
I23
I54
I82
I100
I21
I82
I204
I95
I391
I67
I152
I223
I60
I236
I100
I62
I51
I37
I301
I506
I3599
I1371
tp2
a(I18215
I25
I232
I27
I67
I93
I81
I29
I93
I10
I137
I380
I106
I32
I109
I46
I174
I168
I34
I41
I19
I37
I18
I46
I415
I42
I68
I108
I180
I367
I68
I165
I121
I47
I426
I23
I146
I87
I277
I908
I419
I923
I324
I4
I33
I47
I5
I306
I319
I9
I342
I43
I192
I5
I129
I140
I150
I276
I31
I150
I9
I68
I129
I53
I55
I51
I31
I39
I226
I73
I24
I17
I199
I44
I48
I15
I34
I254
I21
I32
I76
I41
I117
I23
I56
I28
I38
I166
I158
I96
I185
I155
I473
I50
I108
I169
I249
I123
I2
I5359
tp3
a(I18215
I460
I173
I316
I301
I309
I155
I263
I72
I813
I375
I218
I43
I489
I57
I99
I409
I237
I42
I132
I80
I25
I316
I88
I36
I32
I72
I55
I74
I10
I136
I150
I87
I45
I38
I21
I50
I30
I43
I62
I247
I30
I502
I46
I38
I183
I11
I4
I22
I415
I23
I838
I252
I10
I103
I5
I159
I162
I296
I8
I46
I552
I53
I135
I270
I53
I177
I162
I25
I253
I102
I22
I133
I35
I57
I51
I43
I111
I365
I74
I48
I205
I185
I212
I67
I40
I129
I120
I131
I219
I232
I191
I440
I7
I944
I74
I1216
I660
I565
I222
tp4
a(I18225
I75
I89
I20
I50
I54
I193
I217
I92
I30
I89
I89
I96
I38
I41
I66
I246
I56
I280
I150
I52
I130
I171
I152
I25
I19
I45
I54
I21
I30
I50
I36
I185
I38
I30
I39
I60
I188
I197
I168
I274
I437
I190
I1005
I662
I45
I9
I37
I1515
I245
I256
I270
I125
I247
I115
I257
I14
I63
I55
I110
I361
I118
I28
I41
I10
I81
I55
I20
I32
I67
I52
I24
I88
I20
I166
I28
I54
I34
I34
I159
I27
I349
I110
I134
I45
I271
I67
I52
I150
I263
I123
I425
I20
I598
I224
I419
I216
I637
I2356
I833
tp5
a(I18215
I340
I307
I404
I387
I403
I71
I45
I85
I448
I11
I89
I19
I19
I53
I106
I307
I12
I525
I44
I349
I33
I253
I80
I88
I117
I356
I38
I138
I32
I109
I46
I26
I92
I26
I44
I132
I100
I60
I426
I112
I41
I79
I80
I10
I72
I299
I10
I336
I28
I73
I366
I636
I162
I4
I4
I6
I275
I4
I412
I64
I48
I599
I68
I159
I309
I12
I171
I74
I92
I54
I60
I185
I124
I231
I42
I31
I208
I46
I84
I88
I20
I35
I91
I85
I18
I22
I40
I292
I46
I119
I332
I292
I76
I48
I82
I1307
I2483
I901
I126
tp6
a(I18215
I499
I1165
I430
I30
I30
I70
I49
I128
I238
I43
I42
I68
I22
I56
I300
I16
I85
I32
I138
I38
I17
I175
I102
I39
I98
I104
I1184
I161
I61
I66
I23
I123
I112
I50
I8
I60
I9
I205
I56
I235
I96
I37
I5
I178
I64
I104
I27
I21
I68
I264
I33
I30
I193
I200
I768
I97
I43
I473
I355
I56
I10
I41
I12
I249
I16
I98
I142
I19
I98
I391
I111
I16
I96
I71
I91
I31
I242
I88
I56
I162
I39
I39
I36
I69
I241
I157
I68
I77
I181
I240
I392
I301
I121
I156
I227
I537
I1953
I1705
I335
tp7
a(I18217
I37
I191
I52
I178
I170
I186
I110
I349
I78
I343
I67
I108
I43
I29
I31
I122
I55
I13
I72
I79
I254
I57
I111
I171
I35
I129
I22
I208
I10
I72
I187
I454
I282
I249
I59
I273
I33
I279
I80
I74
I673
I32
I177
I6
I64
I718
I368
I143
I9
I250
I6
I104
I90
I100
I5
I17
I43
I260
I226
I205
I438
I187
I76
I191
I59
I37
I35
I168
I95
I58
I27
I29
I27
I24
I23
I44
I64
I41
I145
I62
I96
I15
I556
I117
I85
I199
I38
I52
I254
I76
I242
I66
I226
I509
I166
I516
I1590
I21
I2889
tp8
a(I18216
I3133
I33
I95
I164
I152
I206
I57
I56
I368
I37
I41
I81
I37
I50
I26
I54
I43
I200
I197
I19
I71
I355
I69
I667
I390
I53
I94
I472
I81
I29
I246
I24
I31
I89
I55
I131
I25
I121
I35
I5
I45
I126
I12
I142
I6
I17
I354
I181
I29
I164
I64
I65
I13
I24
I218
I167
I75
I621
I650
I167
I56
I18
I81
I78
I132
I16
I23
I170
I289
I300
I103
I67
I38
I15
I58
I94
I174
I148
I56
I13
I34
I72
I13
I115
I66
I44
I64
I63
I64
I424
I139
I2132
I1697
I250
I14
I10
I3
I4
I23
tp9
a(I18234
I65
I57
I190
I207
I18
I60
I85
I107
I23
I91
I48
I39
I384
I323
I415
I88
I126
I68
I26
I56
I24
I30
I38
I79
I256
I68
I228
I25
I63
I260
I41
I121
I167
I128
I20
I31
I84
I66
I364
I36
I28
I26
I244
I320
I585
I483
I110
I113
I585
I59
I295
I216
I653
I45
I374
I108
I18
I338
I88
I123
I13
I132
I134
I50
I67
I114
I228
I39
I61
I56
I83
I40
I130
I35
I14
I28
I121
I39
I64
I508
I24
I54
I68
I72
I75
I94
I61
I304
I42
I230
I113
I182
I114
I349
I771
I339
I120
I15
I3975
tp10
a(I18215
I429
I212
I140
I42
I80
I68
I46
I115
I257
I18
I55
I178
I38
I76
I30
I136
I58
I23
I55
I42
I25
I41
I136
I71
I53
I69
I176
I96
I68
I195
I36
I91
I46
I129
I41
I98
I277
I6
I131
I87
I384
I954
I564
I6
I130
I99
I79
I25
I263
I592
I250
I153
I124
I205
I147
I201
I191
I263
I38
I365
I100
I44
I33
I96
I21
I61
I71
I42
I48
I139
I164
I113
I27
I42
I61
I164
I63
I75
I195
I70
I52
I36
I178
I47
I29
I226
I123
I300
I102
I315
I370
I1103
I210
I226
I12
I873
I2826
I141
I592
tp11
a(I18215
I504
I44
I534
I649
I13
I62
I21
I75
I26
I119
I16
I44
I259
I565
I182
I227
I18
I35
I204
I101
I27
I23
I161
I36
I148
I66
I27
I213
I132
I314
I18
I165
I234
I21
I108
I49
I8
I8
I18
I6
I1486
I14
I23
I1113
I57
I96
I800
I4
I11
I182
I4
I367
I11
I8
I144
I10
I226
I8
I33
I27
I136
I9
I51
I125
I54
I93
I149
I131
I43
I77
I31
I19
I67
I75
I32
I110
I46
I27
I51
I53
I50
I129
I27
I108
I115
I133
I83
I576
I43
I85
I104
I53
I71
I143
I54
I572
I343
I698
I3523
tp12
a(I18215
I64
I82
I131
I102
I80
I125
I69
I29
I66
I139
I20
I36
I30
I131
I106
I126
I286
I24
I362
I50
I38
I67
I122
I54
I50
I45
I85
I51
I35
I54
I42
I196
I12
I51
I61
I296
I58
I179
I32
I92
I66
I346
I918
I960
I816
I780
I292
I26
I33
I28
I523
I45
I167
I563
I9
I88
I80
I43
I166
I69
I103
I59
I133
I69
I31
I47
I294
I159
I74
I42
I39
I195
I46
I77
I24
I34
I43
I200
I67
I39
I22
I267
I21
I42
I282
I51
I37
I95
I150
I37
I13
I337
I305
I129
I44
I60
I24
I4493
I513
tp13
a(I18215
I415
I28
I400
I422
I386
I212
I36
I330
I474
I561
I154
I83
I338
I99
I19
I18
I22
I26
I170
I43
I31
I610
I192
I63
I40
I85
I49
I233
I32
I72
I38
I6
I45
I240
I17
I293
I10
I623
I202
I496
I14
I141
I4
I6
I162
I64
I115
I20
I268
I3
I150
I118
I52
I32
I127
I4
I54
I23
I11
I150
I35
I334
I47
I130
I9
I810
I209
I146
I19
I31
I169
I39
I76
I195
I343
I42
I31
I111
I208
I238
I40
I53
I292
I98
I63
I124
I26
I371
I511
I40
I732
I1312
I102
I1348
I274
I64
I118
I319
I153
tp14
a(I18312
I148
I104
I222
I57
I214
I57
I100
I82
I40
I13
I56
I21
I146
I39
I583
I30
I121
I371
I80
I25
I93
I159
I162
I36
I21
I16
I217
I46
I55
I257
I519
I13
I11
I6
I2287
I742
I8
I313
I6
I4
I402
I362
I63
I138
I6
I28
I337
I9
I29
I23
I9
I43
I60
I208
I198
I51
I146
I113
I168
I216
I63
I55
I29
I26
I62
I150
I84
I127
I24
I33
I55
I189
I35
I78
I132
I90
I349
I29
I52
I20
I11
I55
I51
I95
I95
I159
I104
I216
I67
I198
I208
I329
I53
I32
I654
I2260
I913
I574
I451
tp15
a(I18222
I63
I347
I131
I340
I304
I35
I401
I39
I55
I17
I31
I151
I132
I312
I126
I105
I212
I420
I129
I30
I97
I150
I274
I24
I123
I35
I137
I20
I150
I193
I48
I198
I50
I81
I593
I32
I32
I102
I19
I85
I306
I122
I39
I104
I145
I19
I127
I6
I6
I485
I245
I102
I12
I268
I246
I110
I50
I643
I458
I195
I306
I9
I14
I170
I34
I66
I11
I267
I161
I71
I125
I210
I123
I229
I123
I29
I14
I24
I183
I22
I120
I64
I30
I53
I34
I30
I104
I270
I78
I1153
I53
I414
I442
I934
I22
I2111
I316
I112
I344
tp16
a(I18215
I336
I235
I362
I202
I43
I106
I63
I33
I378
I19
I46
I27
I56
I76
I35
I72
I39
I109
I57
I148
I36
I124
I30
I59
I28
I33
I223
I53
I507
I63
I62
I214
I88
I51
I234
I27
I54
I51
I199
I110
I44
I34
I59
I24
I60
I507
I78
I5
I270
I123
I155
I198
I18
I656
I73
I446
I1197
I23
I238
I240
I223
I160
I183
I35
I110
I181
I183
I34
I40
I134
I301
I127
I30
I46
I41
I83
I58
I47
I213
I26
I153
I37
I68
I261
I29
I186
I46
I577
I91
I439
I1551
I615
I703
I863
I427
I277
I419
I218
I42
tp17
a(I18223
I514
I480
I1696
I574
I21
I69
I188
I321
I326
I572
I367
I11
I23
I48
I34
I40
I72
I20
I88
I251
I52
I91
I90
I120
I53
I45
I32
I59
I114
I8
I65
I44
I88
I65
I33
I52
I7
I73
I6
I27
I475
I37
I30
I233
I102
I6
I15
I36
I122
I4
I6
I64
I113
I22
I176
I154
I261
I33
I35
I278
I220
I427
I155
I558
I655
I13
I106
I35
I355
I15
I27
I120
I15
I19
I58
I113
I50
I27
I120
I12
I56
I27
I26
I33
I98
I34
I53
I58
I20
I28
I104
I62
I59
I134
I70
I128
I4477
I402
I375
tp18
a(I18215
I103
I116
I200
I188
I37
I87
I67
I69
I31
I18
I10
I15
I130
I114
I17
I82
I58
I46
I60
I106
I32
I42
I239
I88
I27
I52
I54
I149
I58
I166
I116
I121
I45
I41
I613
I413
I69
I69
I250
I23
I412
I212
I125
I1621
I19
I209
I369
I6
I387
I73
I52
I63
I79
I10
I53
I76
I59
I66
I70
I193
I50
I207
I143
I173
I19
I102
I580
I223
I73
I73
I67
I34
I182
I204
I34
I30
I29
I73
I140
I36
I84
I82
I132
I38
I100
I374
I52
I321
I185
I187
I34
I311
I222
I287
I315
I3569
I23
I1085
I145
tp19
a(I18216
I152
I209
I102
I125
I18
I119
I48
I34
I10
I64
I46
I92
I50
I27
I58
I187
I63
I74
I207
I51
I98
I18
I53
I131
I128
I31
I9
I63
I34
I353
I726
I321
I40
I451
I215
I1212
I29
I85
I284
I265
I940
I283
I173
I15
I110
I25
I284
I185
I192
I73
I55
I119
I30
I520
I8
I130
I79
I129
I117
I302
I43
I103
I64
I23
I18
I50
I103
I186
I17
I31
I88
I247
I35
I72
I268
I30
I54
I48
I66
I60
I441
I94
I11
I20
I563
I149
I25
I410
I437
I17
I304
I1437
I666
I764
I895
I83
I411
I6
I2
tp20
a(I18233
I107
I82
I99
I42
I11
I190
I113
I26
I126
I21
I73
I46
I84
I35
I99
I27
I49
I24
I383
I66
I28
I50
I29
I40
I26
I43
I79
I81
I69
I463
I105
I523
I361
I9
I654
I35
I901
I227
I530
I10
I369
I322
I148
I239
I200
I42
I6
I92
I170
I49
I653
I505
I134
I20
I31
I84
I8
I15
I68
I25
I144
I73
I143
I27
I30
I69
I167
I38
I145
I37
I21
I201
I27
I36
I19
I24
I205
I69
I77
I129
I74
I238
I28
I32
I119
I195
I115
I80
I211
I223
I381
I134
I152
I976
I1569
I36
I296
I1619
I1070
tp21
a(I18220
I163
I19
I188
I65
I164
I211
I102
I23
I392
I157
I17
I69
I17
I296
I22
I29
I58
I27
I52
I81
I31
I503
I50
I45
I54
I34
I132
I51
I70
I69
I18
I19
I311
I681
I28
I199
I85
I201
I158
I160
I1030
I56
I97
I116
I191
I480
I616
I274
I9
I464
I282
I45
I7
I261
I168
I194
I220
I118
I30
I102
I296
I70
I109
I32
I56
I48
I48
I33
I196
I69
I37
I70
I119
I311
I17
I82
I91
I300
I98
I40
I79
I66
I39
I80
I189
I77
I82
I55
I148
I76
I51
I271
I234
I18
I493
I798
I431
I2225
I1043
tp22
a(I18215
I76
I247
I31
I70
I201
I45
I29
I129
I35
I88
I44
I68
I29
I175
I237
I314
I46
I21
I47
I111
I21
I68
I31
I118
I270
I33
I164
I158
I51
I63
I71
I159
I18
I71
I165
I181
I455
I7
I14
I21
I70
I4
I1368
I381
I810
I11
I47
I4
I836
I135
I253
I257
I8
I183
I269
I197
I245
I104
I56
I203
I87
I12
I61
I75
I24
I41
I27
I413
I97
I109
I115
I253
I43
I39
I48
I41
I59
I13
I19
I173
I31
I37
I98
I64
I42
I120
I138
I176
I8
I37
I332
I327
I102
I63
I766
I936
I28
I2066
I1650
tp23
a(I18215
I216
I151
I17
I210
I120
I110
I190
I43
I98
I190
I20
I13
I34
I41
I39
I269
I192
I128
I99
I152
I209
I103
I194
I23
I103
I58
I49
I51
I22
I194
I27
I45
I110
I108
I77
I155
I128
I77
I111
I40
I186
I39
I146
I89
I40
I144
I24
I236
I883
I41
I134
I8
I177
I94
I33
I716
I981
I29
I120
I53
I107
I125
I298
I296
I140
I110
I158
I100
I48
I17
I104
I23
I56
I150
I215
I34
I25
I32
I28
I29
I308
I31
I26
I52
I243
I48
I128
I32
I156
I76
I43
I60
I191
I404
I305
I213
I37
I398
I5158
tp24
a(I18216
I129
I29
I109
I27
I70
I216
I101
I73
I125
I46
I41
I9
I38
I104
I280
I20
I19
I52
I51
I323
I90
I167
I21
I934
I289
I37
I38
I167
I161
I37
I59
I545
I32
I212
I69
I101
I348
I561
I382
I44
I549
I1138
I122
I67
I127
I171
I7
I415
I243
I20
I179
I20
I40
I127
I16
I393
I47
I8
I181
I22
I77
I123
I68
I17
I95
I191
I115
I29
I98
I61
I41
I63
I221
I130
I86
I43
I42
I64
I51
I182
I129
I37
I31
I72
I74
I63
I164
I402
I149
I79
I74
I60
I143
I79
I108
I922
I850
I2713
I398
tp25
a(I18215
I95
I75
I19
I81
I52
I60
I17
I39
I26
I104
I33
I36
I121
I46
I10
I48
I49
I329
I14
I199
I81
I74
I86
I27
I60
I137
I25
I20
I325
I253
I170
I74
I10
I57
I226
I289
I432
I578
I670
I1196
I589
I60
I11
I99
I368
I348
I73
I261
I140
I35
I164
I47
I22
I58
I175
I74
I218
I274
I59
I130
I114
I162
I96
I57
I54
I8
I34
I25
I18
I41
I60
I34
I61
I16
I19
I25
I513
I112
I56
I67
I30
I55
I32
I58
I58
I60
I325
I314
I21
I354
I470
I1814
I1437
I161
I725
I409
I410
I181
I459
tp26
a(I18218
I30
I112
I23
I146
I129
I49
I41
I40
I17
I193
I33
I130
I32
I350
I158
I222
I17
I90
I55
I69
I28
I19
I26
I15
I52
I175
I88
I57
I107
I147
I24
I742
I50
I29
I219
I23
I209
I89
I216
I452
I607
I108
I85
I12
I143
I232
I68
I436
I57
I251
I15
I274
I58
I89
I136
I67
I459
I154
I74
I48
I23
I99
I72
I347
I49
I180
I170
I152
I97
I37
I211
I62
I96
I133
I70
I106
I91
I49
I22
I115
I63
I110
I30
I44
I59
I79
I193
I746
I125
I626
I102
I187
I1639
I1584
I709
I182
I719
I537
I399
tp27
a(I18215
I855
I629
I374
I544
I78
I21
I58
I38
I422
I452
I73
I16
I29
I22
I111
I464
I246
I526
I313
I663
I86
I16
I91
I122
I26
I39
I18
I33
I24
I50
I74
I43
I30
I64
I80
I280
I8
I27
I50
I27
I140
I158
I76
I125
I27
I81
I21
I10
I112
I60
I311
I589
I67
I896
I26
I68
I12
I116
I14
I137
I285
I233
I100
I67
I120
I103
I273
I25
I105
I18
I39
I36
I84
I224
I46
I110
I130
I90
I35
I73
I35
I164
I34
I442
I62
I53
I185
I135
I311
I154
I134
I586
I336
I316
I7
I2608
I262
I162
I43
tp28
a(I18218
I514
I226
I212
I47
I39
I87
I235
I119
I167
I55
I46
I14
I75
I50
I40
I19
I19
I28
I261
I164
I111
I38
I52
I33
I34
I150
I15
I103
I138
I634
I11
I48
I78
I46
I183
I83
I42
I136
I31
I34
I71
I51
I23
I17
I636
I428
I830
I60
I115
I1008
I42
I43
I8
I196
I60
I14
I623
I132
I237
I10
I388
I20
I79
I58
I148
I195
I94
I74
I50
I105
I14
I23
I36
I24
I47
I732
I27
I72
I60
I51
I167
I35
I58
I16
I49
I61
I37
I68
I120
I54
I113
I188
I219
I567
I338
I1459
I1177
I1848
I498
tp29
a(I18215
I99
I89
I160
I89
I112
I57
I77
I22
I41
I13
I83
I21
I132
I34
I82
I30
I12
I74
I33
I39
I33
I80
I64
I207
I408
I14
I26
I54
I388
I183
I598
I235
I25
I59
I515
I134
I382
I265
I233
I70
I474
I893
I68
I54
I34
I21
I159
I129
I234
I130
I72
I139
I64
I49
I205
I151
I223
I234
I165
I80
I96
I22
I27
I15
I97
I19
I64
I43
I40
I196
I50
I12
I41
I68
I43
I245
I250
I238
I72
I25
I139
I128
I88
I104
I66
I307
I239
I161
I26
I398
I198
I627
I431
I190
I1180
I2450
I796
I236
I116
tp30
a(I18216
I1342
I1146
I240
I17
I100
I74
I374
I54
I790
I127
I27
I65
I45
I79
I47
I53
I101
I101
I805
I16
I43
I55
I17
I43
I1083
I278
I15
I34
I31
I81
I29
I121
I174
I62
I24
I22
I22
I136
I58
I154
I70
I17
I126
I14
I241
I16
I76
I58
I47
I179
I36
I199
I6
I35
I436
I57
I120
I344
I156
I57
I252
I22
I270
I70
I12
I28
I18
I42
I19
I161
I23
I26
I27
I179
I40
I73
I290
I71
I61
I166
I65
I107
I199
I84
I29
I96
I141
I147
I61
I28
I53
I29
I33
I85
I390
I342
I432
I3620
I226
tp31
a(I18215
I407
I971
I333
I70
I145
I78
I83
I353
I31
I125
I247
I19
I471
I78
I113
I78
I61
I231
I243
I261
I159
I157
I377
I186
I100
I179
I434
I30
I80
I55
I84
I104
I49
I15
I40
I27
I104
I6
I186
I7
I81
I6
I111
I58
I17
I30
I90
I240
I382
I238
I11
I5
I187
I23
I468
I7
I340
I157
I142
I16
I260
I7
I43
I388
I377
I81
I6
I10
I597
I63
I86
I151
I32
I27
I97
I119
I111
I203
I45
I34
I25
I40
I183
I112
I116
I80
I17
I78
I326
I332
I200
I39
I158
I120
I301
I3196
I454
I89
I404
tp32
a(I18215
I93
I2642
I100
I33
I20
I59
I50
I87
I257
I512
I309
I256
I152
I545
I107
I155
I55
I220
I438
I210
I311
I49
I39
I50
I89
I124
I21
I16
I127
I44
I35
I49
I28
I9
I131
I76
I43
I29
I27
I100
I9
I32
I130
I86
I7
I13
I158
I62
I7
I694
I241
I80
I192
I163
I266
I67
I4
I125
I360
I177
I25
I139
I45
I12
I169
I42
I193
I42
I56
I44
I63
I159
I171
I175
I144
I33
I144
I23
I68
I97
I62
I18
I30
I41
I42
I55
I36
I52
I74
I55
I89
I58
I76
I196
I2046
I1613
I985
I364
I87
tp33
a(I18215
I161
I30
I125
I125
I214
I103
I82
I121
I196
I34
I19
I54
I201
I50
I30
I155
I478
I174
I83
I238
I41
I198
I40
I142
I83
I50
I46
I184
I105
I75
I74
I251
I40
I55
I61
I27
I64
I98
I192
I147
I186
I181
I68
I86
I156
I33
I93
I5
I44
I16
I198
I322
I70
I13
I48
I112
I137
I231
I87
I402
I1291
I733
I25
I159
I168
I285
I33
I54
I15
I169
I152
I82
I148
I283
I36
I24
I270
I47
I129
I51
I139
I57
I203
I153
I33
I261
I44
I253
I241
I571
I288
I21
I270
I1616
I1411
I125
I851
I39
I529
tp34
a(I18225
I97
I68
I112
I14
I14
I126
I472
I20
I183
I68
I29
I56
I50
I25
I328
I73
I63
I60
I15
I48
I77
I66
I204
I27
I79
I233
I41
I32
I152
I273
I564
I308
I202
I76
I102
I42
I749
I120
I57
I57
I550
I490
I98
I520
I149
I92
I95
I92
I263
I100
I123
I8
I136
I208
I39
I571
I30
I100
I29
I51
I172
I22
I107
I75
I29
I151
I45
I59
I65
I138
I153
I49
I262
I140
I50
I64
I86
I89
I31
I61
I22
I81
I75
I52
I164
I247
I47
I44
I328
I375
I139
I584
I286
I25
I879
I2366
I535
I802
I358
tp35
a(I18232
I41
I17
I30
I16
I27
I65
I40
I102
I147
I55
I58
I86
I131
I35
I129
I33
I14
I15
I64
I46
I13
I127
I82
I99
I217
I59
I89
I68
I206
I50
I150
I362
I55
I60
I94
I13
I47
I443
I65
I322
I27
I732
I314
I186
I211
I1675
I236
I58
I88
I5
I117
I996
I62
I144
I40
I356
I165
I38
I138
I124
I108
I85
I62
I207
I289
I42
I25
I28
I68
I66
I30
I54
I28
I65
I5
I37
I34
I93
I40
I29
I27
I198
I23
I219
I333
I42
I45
I308
I399
I133
I108
I63
I116
I182
I174
I544
I2966
I1616
I1
tp36
a(I18223
I119
I221
I932
I366
I269
I247
I268
I199
I113
I88
I760
I29
I292
I314
I225
I191
I168
I274
I101
I112
I121
I25
I45
I61
I202
I126
I86
I23
I136
I36
I18
I91
I23
I113
I22
I113
I25
I31
I113
I154
I131
I96
I110
I92
I27
I76
I15
I334
I63
I48
I24
I11
I20
I73
I159
I548
I370
I1249
I356
I550
I4
I40
I9
I158
I279
I30
I58
I97
I40
I165
I121
I73
I47
I126
I39
I93
I29
I69
I28
I95
I67
I82
I34
I8
I50
I130
I31
I60
I94
I143
I471
I489
I179
I120
I207
I1085
I685
I1284
I362
tp37
a(I18223
I41
I204
I97
I140
I184
I165
I49
I133
I64
I87
I21
I75
I324
I121
I30
I14
I462
I223
I56
I572
I97
I48
I90
I89
I33
I25
I52
I234
I146
I77
I169
I128
I49
I90
I141
I52
I114
I116
I54
I27
I906
I9
I14
I458
I577
I226
I28
I251
I107
I13
I377
I707
I74
I33
I972
I23
I541
I55
I112
I71
I132
I128
I102
I65
I73
I116
I254
I74
I24
I45
I96
I50
I102
I19
I49
I98
I105
I229
I49
I37
I107
I46
I45
I82
I86
I31
I106
I93
I48
I106
I78
I226
I187
I359
I2043
I1652
I16
I138
I642
tp38
a(I18226
I139
I80
I215
I120
I60
I134
I101
I87
I75
I96
I13
I26
I86
I24
I88
I23
I23
I21
I25
I66
I308
I33
I64
I91
I52
I25
I75
I39
I215
I284
I416
I11
I244
I35
I226
I227
I455
I29
I104
I303
I638
I277
I756
I673
I91
I322
I4
I75
I102
I298
I217
I137
I68
I94
I146
I340
I149
I145
I101
I252
I267
I156
I73
I18
I36
I39
I119
I75
I62
I47
I81
I27
I32
I41
I13
I16
I19
I30
I286
I27
I61
I141
I40
I270
I35
I658
I156
I83
I130
I262
I153
I15
I579
I1902
I1113
I789
I140
I443
I325
tp39
a(I18217
I541
I230
I39
I22
I35
I221
I67
I24
I18
I384
I15
I67
I144
I58
I13
I69
I42
I433
I21
I87
I151
I67
I39
I350
I105
I81
I38
I14
I115
I29
I64
I152
I218
I44
I95
I196
I36
I116
I167
I44
I72
I903
I25
I32
I340
I677
I15
I274
I43
I5
I35
I4
I1019
I42
I332
I200
I179
I114
I15
I154
I63
I315
I126
I35
I40
I53
I84
I54
I34
I37
I375
I37
I21
I41
I59
I70
I32
I20
I26
I44
I54
I15
I67
I188
I73
I135
I53
I54
I213
I88
I330
I348
I293
I819
I307
I1584
I58
I1810
I1205
tp40
a(I18215
I503
I366
I46
I30
I43
I214
I78
I93
I309
I110
I308
I165
I98
I105
I145
I243
I28
I126
I904
I96
I128
I38
I73
I97
I18
I220
I70
I130
I91
I188
I64
I68
I127
I72
I23
I147
I35
I79
I152
I84
I68
I5
I353
I11
I14
I9
I75
I69
I215
I278
I834
I325
I111
I170
I280
I21
I160
I49
I1010
I51
I20
I85
I131
I120
I53
I55
I210
I231
I89
I72
I124
I49
I73
I9
I33
I271
I214
I96
I68
I92
I37
I56
I73
I102
I44
I88
I119
I33
I168
I48
I191
I488
I243
I297
I554
I823
I2538
I139
I235
tp41
a(I18225
I74
I168
I60
I22
I92
I73
I33
I13
I171
I86
I197
I100
I49
I42
I88
I201
I99
I99
I78
I63
I110
I295
I90
I37
I61
I155
I37
I20
I44
I128
I145
I84
I89
I54
I168
I166
I227
I231
I192
I284
I37
I256
I231
I216
I36
I291
I676
I345
I55
I379
I4
I618
I75
I218
I411
I42
I228
I50
I101
I57
I138
I288
I80
I21
I121
I57
I177
I14
I33
I28
I129
I58
I75
I71
I49
I50
I68
I150
I45
I164
I16
I141
I21
I166
I134
I21
I30
I28
I32
I654
I200
I134
I600
I528
I330
I83
I461
I2227
I2010
tp42
a(I18215
I33
I33
I42
I19
I18
I35
I151
I303
I277
I528
I149
I78
I53
I221
I60
I207
I45
I49
I114
I564
I47
I188
I214
I62
I217
I127
I166
I210
I119
I232
I293
I348
I258
I472
I132
I617
I100
I272
I119
I253
I44
I233
I78
I14
I67
I320
I64
I130
I507
I21
I149
I47
I222
I85
I29
I31
I142
I104
I68
I36
I17
I173
I112
I44
I160
I64
I20
I138
I166
I34
I51
I291
I47
I58
I8
I23
I100
I25
I305
I35
I184
I78
I39
I168
I176
I147
I52
I275
I134
I108
I19
I240
I348
I591
I2336
I721
I280
I340
I470
tp43
a(I18215
I132
I52
I138
I80
I249
I58
I90
I189
I178
I130
I29
I27
I121
I91
I16
I48
I31
I212
I100
I69
I134
I93
I107
I184
I234
I36
I46
I10
I48
I152
I285
I68
I142
I612
I206
I400
I28
I491
I899
I31
I613
I219
I485
I8
I214
I592
I30
I94
I213
I16
I151
I52
I108
I133
I34
I57
I263
I189
I29
I98
I97
I54
I95
I40
I106
I63
I29
I63
I101
I22
I167
I30
I185
I136
I26
I66
I59
I29
I64
I53
I236
I42
I39
I29
I62
I161
I269
I64
I40
I496
I42
I412
I145
I222
I353
I556
I165
I2825
I906
tp44
a(I18219
I20
I61
I42
I52
I61
I152
I44
I220
I258
I59
I27
I145
I286
I28
I44
I160
I208
I76
I12
I225
I44
I79
I94
I249
I372
I98
I29
I12
I15
I178
I131
I925
I827
I1041
I1159
I89
I156
I52
I296
I114
I111
I360
I24
I18
I170
I42
I124
I14
I231
I187
I44
I18
I92
I25
I34
I34
I330
I57
I61
I19
I76
I25
I49
I36
I26
I497
I115
I81
I88
I21
I119
I15
I60
I17
I36
I16
I18
I20
I47
I291
I156
I190
I387
I196
I48
I245
I73
I241
I50
I72
I71
I231
I1504
I826
I1597
I390
I117
I178
I29
tp45
a(I18216
I76
I52
I71
I17
I86
I23
I15
I66
I189
I35
I137
I60
I87
I21
I27
I11
I17
I95
I41
I147
I102
I15
I56
I359
I22
I55
I32
I52
I50
I29
I203
I27
I163
I25
I20
I228
I866
I152
I208
I158
I51
I9
I11
I206
I768
I21
I300
I635
I598
I326
I946
I296
I5
I61
I93
I135
I42
I6
I135
I223
I15
I18
I71
I55
I16
I44
I161
I78
I69
I143
I30
I45
I68
I88
I483
I148
I52
I92
I26
I19
I21
I32
I19
I40
I108
I254
I290
I66
I83
I55
I35
I140
I417
I88
I217
I146
I234
I2032
I3432
tp46
a(I18226
I45
I110
I154
I44
I46
I149
I32
I88
I24
I100
I13
I107
I104
I12
I51
I195
I136
I45
I55
I26
I82
I25
I81
I178
I11
I50
I253
I181
I316
I157
I126
I93
I289
I25
I563
I29
I23
I16
I214
I23
I409
I834
I864
I453
I81
I219
I137
I469
I125
I519
I166
I90
I114
I7
I8
I15
I65
I56
I175
I36
I26
I66
I224
I103
I345
I202
I112
I104
I143
I52
I41
I98
I43
I95
I69
I28
I87
I73
I148
I44
I59
I254
I28
I27
I197
I211
I73
I322
I370
I262
I102
I421
I172
I1520
I471
I358
I1519
I699
I101
tp47
a(I18225
I47
I62
I16
I19
I130
I122
I149
I111
I119
I92
I32
I243
I23
I34
I32
I37
I41
I26
I36
I14
I59
I195
I123
I47
I177
I118
I26
I27
I19
I28
I71
I49
I834
I151
I366
I718
I382
I1012
I267
I32
I641
I422
I14
I355
I15
I82
I236
I59
I46
I185
I43
I231
I181
I71
I46
I26
I193
I261
I116
I22
I67
I104
I85
I53
I140
I70
I57
I45
I26
I244
I12
I30
I20
I40
I19
I39
I32
I20
I10
I71
I50
I223
I100
I321
I407
I17
I51
I38
I31
I32
I145
I276
I491
I197
I78
I167
I211
I1383
I3650
tp48
a(I18215
I290
I265
I51
I274
I158
I330
I48
I203
I276
I136
I22
I24
I226
I49
I483
I72
I89
I76
I145
I179
I21
I166
I21
I142
I24
I84
I19
I75
I63
I6
I44
I36
I51
I116
I109
I276
I147
I52
I26
I37
I183
I112
I49
I186
I224
I93
I114
I43
I369
I44
I101
I15
I70
I6
I48
I112
I469
I69
I616
I761
I108
I228
I71
I407
I46
I169
I345
I342
I133
I42
I91
I223
I245
I149
I44
I74
I41
I235
I61
I28
I72
I132
I6
I368
I289
I34
I61
I265
I242
I281
I80
I283
I62
I315
I163
I1942
I1582
I196
I343
tp49
a(I18242
I52
I25
I351
I41
I228
I133
I47
I101
I19
I98
I79
I134
I77
I19
I75
I92
I29
I96
I190
I33
I288
I25
I154
I41
I67
I20
I162
I110
I70
I28
I106
I34
I63
I69
I36
I117
I182
I93
I65
I25
I18
I162
I32
I291
I97
I609
I38
I265
I54
I366
I931
I328
I826
I110
I102
I503
I269
I14
I11
I46
I245
I45
I189
I255
I40
I190
I117
I113
I386
I34
I205
I72
I100
I17
I16
I33
I47
I32
I18
I58
I91
I27
I86
I77
I28
I427
I97
I88
I510
I342
I90
I540
I217
I133
I463
I403
I959
I2141
I689
tp50
a(I18215
I200
I231
I71
I225
I222
I126
I18
I297
I100
I66
I26
I141
I68
I66
I91
I30
I30
I422
I42
I46
I206
I25
I44
I185
I114
I37
I59
I100
I78
I110
I51
I226
I30
I108
I71
I158
I169
I111
I31
I179
I96
I128
I504
I25
I96
I560
I89
I482
I152
I252
I237
I259
I509
I353
I106
I20
I499
I95
I49
I105
I224
I142
I90
I323
I89
I163
I44
I185
I139
I38
I25
I40
I128
I30
I59
I127
I26
I74
I121
I63
I107
I215
I224
I70
I223
I193
I251
I6
I18
I169
I510
I622
I246
I2896
I698
I122
I32
I127
I308
tp51
a(I18216
I793
I57
I110
I23
I333
I36
I198
I590
I129
I105
I1066
I47
I16
I47
I226
I322
I280
I131
I41
I12
I15
I123
I416
I98
I284
I31
I281
I51
I64
I40
I53
I133
I26
I20
I99
I37
I51
I24
I23
I42
I58
I37
I20
I59
I29
I15
I295
I43
I199
I180
I198
I260
I5
I81
I28
I197
I238
I13
I319
I374
I29
I28
I12
I47
I253
I117
I8
I7
I454
I613
I26
I72
I35
I313
I7
I9
I53
I89
I152
I50
I133
I56
I147
I59
I84
I33
I68
I79
I38
I232
I63
I136
I67
I151
I205
I330
I301
I4302
I413
tp52
a(I18215
I242
I200
I236
I192
I37
I239
I35
I116
I59
I29
I101
I187
I24
I44
I53
I62
I54
I26
I53
I54
I77
I25
I64
I109
I53
I14
I42
I18
I120
I146
I96
I38
I124
I22
I51
I123
I175
I84
I66
I125
I24
I133
I445
I34
I144
I433
I78
I211
I300
I578
I53
I26
I463
I85
I197
I142
I113
I426
I164
I112
I63
I885
I9
I106
I176
I36
I98
I46
I277
I27
I141
I125
I69
I16
I119
I80
I44
I398
I124
I50
I32
I113
I37
I83
I295
I49
I66
I44
I92
I197
I242
I714
I215
I251
I64
I2987
I865
I101
I1281
tp53
a(I18234
I69
I35
I160
I194
I72
I46
I60
I151
I21
I50
I57
I241
I153
I184
I173
I114
I57
I342
I39
I141
I34
I27
I84
I53
I33
I90
I62
I22
I32
I49
I121
I67
I32
I53
I171
I71
I463
I272
I61
I66
I110
I102
I159
I77
I87
I7
I65
I434
I1022
I4
I81
I60
I572
I249
I295
I106
I115
I128
I562
I16
I494
I153
I15
I187
I30
I98
I82
I32
I105
I10
I294
I182
I133
I121
I99
I23
I134
I23
I134
I139
I32
I42
I165
I45
I55
I49
I82
I250
I41
I238
I43
I159
I244
I465
I11
I4259
I31
I5
I1197
tp54
a(I18222
I1572
I23
I322
I351
I27
I108
I94
I80
I24
I28
I321
I31
I58
I35
I31
I32
I34
I366
I24
I85
I34
I22
I67
I217
I53
I43
I250
I233
I48
I47
I246
I45
I134
I70
I91
I58
I43
I137
I53
I492
I51
I97
I7
I51
I247
I225
I160
I190
I16
I260
I63
I110
I7
I257
I36
I5
I388
I286
I125
I28
I355
I27
I20
I8
I467
I31
I22
I108
I24
I75
I57
I36
I44
I184
I291
I136
I21
I18
I74
I19
I72
I201
I146
I111
I39
I101
I223
I16
I38
I44
I47
I62
I131
I381
I378
I854
I1991
I1547
I1349
tp55
a(I18222
I330
I509
I354
I293
I33
I69
I91
I363
I25
I194
I438
I748
I68
I25
I240
I123
I48
I298
I170
I51
I24
I114
I415
I30
I135
I20
I251
I49
I26
I15
I170
I40
I33
I147
I57
I72
I107
I53
I106
I41
I35
I27
I190
I72
I25
I60
I152
I436
I465
I100
I90
I733
I393
I229
I14
I25
I177
I9
I12
I110
I184
I253
I227
I476
I494
I152
I40
I51
I118
I73
I131
I135
I44
I21
I26
I25
I63
I63
I60
I366
I161
I150
I137
I39
I16
I87
I32
I94
I151
I241
I661
I133
I1406
I232
I971
I271
I365
I344
I164
tp56
a(I18226
I60
I41
I63
I40
I21
I185
I104
I119
I24
I35
I116
I22
I61
I27
I136
I79
I163
I170
I32
I48
I74
I73
I276
I151
I52
I95
I31
I122
I59
I82
I341
I25
I297
I206
I276
I132
I1095
I595
I306
I190
I529
I23
I564
I625
I89
I179
I250
I270
I7
I11
I327
I346
I58
I50
I88
I49
I100
I210
I195
I31
I171
I56
I129
I41
I165
I190
I133
I117
I124
I23
I64
I34
I295
I52
I29
I46
I110
I72
I76
I69
I23
I49
I149
I377
I61
I95
I133
I29
I199
I17
I343
I256
I583
I561
I582
I545
I652
I1436
I271
tp57
a(I18215
I51
I53
I92
I135
I125
I177
I71
I18
I44
I217
I13
I20
I122
I116
I85
I10
I13
I40
I114
I28
I32
I81
I382
I15
I36
I53
I64
I201
I40
I136
I100
I497
I153
I302
I43
I28
I34
I1456
I373
I972
I5
I149
I103
I120
I489
I198
I423
I93
I33
I178
I81
I165
I52
I165
I23
I74
I251
I174
I21
I68
I61
I22
I210
I17
I32
I31
I69
I26
I40
I52
I77
I40
I30
I43
I42
I128
I72
I66
I47
I300
I74
I75
I30
I232
I72
I183
I85
I140
I26
I98
I252
I154
I22
I17
I225
I4195
I95
I221
I1385
tp58
a(I18215
I477
I366
I145
I444
I393
I48
I26
I341
I287
I62
I62
I44
I458
I63
I116
I41
I267
I46
I457
I19
I311
I31
I496
I130
I229
I92
I278
I54
I80
I35
I79
I195
I71
I211
I58
I236
I34
I58
I135
I48
I41
I33
I235
I24
I286
I116
I94
I9
I5
I241
I413
I252
I53
I37
I81
I84
I73
I6
I341
I33
I131
I86
I112
I547
I118
I337
I73
I47
I72
I15
I61
I69
I27
I227
I46
I104
I28
I87
I76
I25
I131
I82
I46
I44
I317
I162
I196
I166
I250
I395
I21
I326
I434
I42
I435
I936
I521
I1008
I1113
tp59
a(I18216
I211
I188
I111
I177
I243
I75
I91
I235
I53
I80
I84
I135
I125
I434
I14
I35
I49
I69
I56
I32
I112
I40
I189
I49
I41
I17
I84
I19
I40
I143
I124
I62
I363
I14
I33
I32
I253
I139
I88
I73
I122
I5
I69
I358
I33
I340
I481
I988
I950
I59
I326
I18
I37
I124
I518
I313
I133
I65
I131
I95
I9
I81
I165
I65
I43
I55
I29
I136
I149
I17
I45
I41
I28
I27
I112
I810
I19
I49
I22
I23
I35
I23
I41
I73
I65
I44
I109
I91
I143
I40
I63
I363
I405
I202
I478
I1414
I2022
I1159
I120
tp60
a(I18215
I785
I296
I70
I348
I249
I294
I65
I103
I36
I94
I197
I15
I324
I163
I156
I85
I60
I382
I177
I72
I51
I26
I21
I94
I41
I25
I25
I39
I40
I321
I42
I21
I127
I195
I46
I39
I136
I44
I107
I27
I94
I292
I50
I32
I83
I185
I57
I160
I50
I113
I12
I92
I694
I224
I427
I189
I117
I408
I122
I32
I67
I59
I12
I267
I250
I504
I151
I253
I140
I228
I303
I37
I24
I25
I191
I83
I142
I119
I161
I292
I40
I21
I119
I31
I49
I176
I34
I434
I73
I224
I405
I84
I78
I134
I164
I1291
I194
I2336
I327
tp61
a(I18216
I47
I107
I32
I76
I68
I47
I34
I90
I56
I26
I57
I42
I144
I23
I201
I98
I29
I56
I45
I24
I111
I25
I284
I29
I38
I46
I141
I131
I46
I138
I54
I55
I247
I29
I33
I70
I1012
I2360
I345
I55
I456
I529
I86
I184
I9
I65
I48
I197
I86
I62
I172
I126
I138
I54
I42
I133
I286
I10
I60
I141
I44
I36
I36
I42
I39
I84
I111
I56
I60
I29
I195
I48
I34
I110
I35
I71
I90
I41
I62
I361
I249
I43
I35
I67
I24
I43
I148
I104
I125
I57
I94
I128
I150
I348
I450
I1156
I1048
I2312
I792
tp62
a(I18225
I155
I181
I17
I29
I202
I30
I174
I90
I152
I102
I72
I33
I135
I29
I35
I61
I68
I13
I92
I34
I54
I57
I122
I64
I26
I137
I57
I89
I51
I64
I13
I68
I158
I79
I64
I7
I143
I152
I1619
I114
I478
I262
I145
I81
I573
I4
I24
I468
I66
I116
I168
I91
I18
I99
I23
I174
I31
I80
I329
I133
I7
I9
I9
I365
I84
I56
I194
I248
I61
I38
I61
I48
I20
I91
I60
I41
I17
I100
I57
I37
I154
I60
I72
I327
I63
I46
I27
I119
I252
I224
I110
I185
I383
I375
I352
I333
I308
I4568
I617
tp63
a(I18215
I475
I1251
I382
I28
I187
I274
I59
I203
I23
I38
I72
I104
I162
I73
I286
I57
I33
I337
I537
I385
I75
I25
I73
I19
I199
I24
I14
I194
I19
I45
I159
I457
I46
I86
I207
I82
I110
I27
I68
I82
I263
I61
I32
I8
I40
I118
I341
I171
I46
I23
I252
I23
I747
I16
I49
I51
I135
I15
I207
I165
I37
I181
I58
I33
I493
I440
I7
I194
I26
I43
I216
I195
I38
I130
I91
I107
I161
I71
I56
I156
I36
I50
I232
I38
I25
I123
I98
I125
I120
I112
I54
I291
I760
I85
I51
I899
I2405
I45
I371
tp64
a(I18220
I1238
I389
I318
I501
I278
I108
I58
I23
I53
I19
I287
I43
I35
I82
I9
I26
I437
I146
I112
I380
I113
I45
I42
I47
I79
I163
I391
I18
I33
I65
I28
I356
I44
I47
I99
I12
I172
I71
I60
I133
I68
I18
I6
I60
I295
I4
I5
I1195
I100
I16
I32
I1315
I19
I81
I68
I338
I4
I280
I73
I163
I238
I23
I151
I328
I121
I18
I65
I25
I148
I23
I34
I211
I34
I77
I35
I13
I50
I46
I47
I161
I38
I45
I42
I49
I33
I67
I60
I57
I102
I264
I132
I680
I426
I467
I187
I12
I2017
I360
I802
tp65
a(I18215
I370
I361
I290
I294
I84
I349
I280
I39
I1084
I199
I53
I67
I286
I57
I34
I59
I115
I240
I105
I306
I24
I436
I47
I37
I48
I24
I40
I20
I57
I39
I46
I44
I49
I84
I116
I64
I49
I51
I55
I76
I131
I17
I147
I68
I49
I17
I92
I21
I18
I34
I23
I165
I411
I123
I967
I4
I925
I4
I115
I85
I11
I268
I89
I5
I142
I20
I22
I83
I427
I385
I57
I111
I109
I121
I62
I54
I252
I40
I71
I10
I239
I48
I44
I94
I56
I68
I227
I33
I7
I22
I259
I439
I145
I45
I2431
I1315
I399
I454
I235
tp66
a(I18215
I40
I63
I34
I200
I97
I131
I160
I183
I187
I37
I21
I112
I210
I25
I27
I117
I42
I261
I209
I359
I114
I80
I47
I57
I33
I82
I76
I95
I119
I89
I172
I28
I22
I351
I368
I650
I610
I255
I209
I91
I217
I438
I1239
I158
I163
I162
I8
I46
I36
I139
I292
I89
I7
I183
I9
I53
I77
I14
I115
I160
I46
I12
I68
I9
I61
I64
I31
I42
I176
I47
I97
I49
I88
I124
I71
I32
I46
I226
I144
I122
I86
I189
I283
I180
I42
I74
I20
I38
I22
I212
I403
I292
I486
I360
I268
I17
I3329
I745
I124
tp67
a(I18218
I60
I30
I82
I99
I104
I90
I159
I79
I27
I133
I154
I27
I20
I64
I43
I76
I72
I72
I20
I147
I269
I134
I98
I51
I54
I32
I742
I591
I19
I524
I471
I60
I49
I819
I326
I195
I51
I173
I324
I101
I87
I478
I35
I321
I40
I466
I145
I116
I134
I82
I114
I147
I240
I132
I50
I106
I78
I149
I19
I37
I42
I260
I29
I29
I131
I177
I19
I47
I116
I182
I44
I104
I53
I117
I57
I176
I111
I41
I58
I18
I73
I171
I177
I242
I167
I243
I330
I61
I63
I102
I58
I416
I63
I241
I199
I533
I649
I1683
I1491
tp68
a(I18215
I67
I1150
I455
I389
I324
I112
I187
I39
I380
I51
I89
I114
I62
I14
I105
I81
I55
I43
I84
I400
I144
I57
I17
I93
I27
I150
I153
I56
I40
I106
I109
I231
I184
I105
I73
I89
I27
I130
I241
I81
I59
I43
I169
I99
I12
I60
I29
I139
I5
I14
I48
I6
I13
I224
I10
I410
I19
I208
I199
I16
I65
I163
I10
I153
I95
I397
I398
I398
I521
I299
I390
I102
I17
I248
I108
I78
I18
I115
I121
I251
I74
I128
I60
I58
I206
I262
I60
I100
I550
I250
I1267
I409
I11
I960
I141
I937
I331
I102
I444
tp69
a(I18269
I118
I130
I62
I152
I14
I71
I11
I14
I37
I155
I77
I72
I172
I89
I103
I30
I31
I33
I38
I40
I28
I95
I121
I189
I26
I31
I139
I99
I31
I50
I18
I32
I89
I124
I217
I210
I46
I50
I47
I52
I57
I378
I60
I73
I38
I160
I110
I139
I19
I953
I145
I144
I181
I71
I900
I87
I35
I851
I58
I404
I47
I39
I251
I169
I123
I15
I180
I75
I70
I163
I109
I52
I536
I42
I138
I53
I69
I133
I386
I46
I39
I10
I147
I77
I48
I91
I107
I40
I148
I700
I253
I304
I435
I364
I630
I1377
I1325
I1213
I329
tp70
a(I18215
I161
I113
I24
I83
I39
I11
I18
I115
I16
I90
I50
I54
I77
I28
I217
I17
I21
I101
I112
I33
I23
I63
I37
I44
I35
I125
I73
I26
I310
I52
I110
I74
I137
I184
I45
I26
I316
I25
I693
I73
I54
I456
I263
I49
I167
I31
I945
I85
I227
I142
I142
I147
I172
I31
I35
I152
I72
I274
I171
I13
I30
I234
I596
I89
I271
I70
I136
I373
I91
I32
I117
I39
I196
I91
I45
I246
I82
I50
I153
I97
I172
I215
I97
I34
I105
I47
I108
I79
I96
I73
I57
I283
I247
I555
I32
I288
I514
I133
I4741
tp71
a(I18215
I343
I132
I548
I35
I519
I146
I211
I69
I139
I147
I275
I37
I51
I628
I53
I23
I9
I421
I313
I135
I78
I61
I77
I55
I233
I1115
I150
I17
I413
I40
I23
I42
I35
I65
I243
I131
I55
I309
I121
I46
I9
I27
I217
I6
I8
I76
I453
I130
I28
I65
I6
I10
I253
I73
I23
I71
I81
I31
I107
I13
I225
I58
I284
I68
I47
I156
I161
I16
I126
I102
I618
I106
I29
I107
I50
I133
I97
I28
I70
I49
I77
I79
I461
I50
I85
I115
I81
I278
I216
I89
I62
I802
I219
I343
I1300
I1474
I529
I259
I114
tp72
a(I18215
I430
I520
I70
I109
I310
I247
I35
I154
I89
I132
I23
I115
I21
I54
I39
I49
I58
I129
I61
I64
I65
I133
I80
I321
I48
I33
I156
I110
I138
I13
I71
I59
I76
I215
I117
I86
I76
I117
I19
I27
I55
I63
I69
I79
I160
I140
I35
I334
I179
I8
I188
I39
I36
I11
I622
I274
I18
I157
I424
I695
I49
I710
I833
I59
I34
I654
I142
I45
I21
I26
I94
I426
I436
I145
I86
I49
I62
I142
I52
I39
I42
I245
I51
I34
I42
I148
I38
I146
I260
I16
I161
I53
I12
I902
I249
I144
I3085
I154
I252
tp73
a(I18220
I93
I77
I132
I189
I198
I66
I24
I55
I33
I111
I90
I90
I40
I55
I9
I199
I21
I100
I125
I120
I61
I64
I15
I60
I14
I397
I110
I10
I265
I40
I189
I61
I176
I83
I66
I449
I200
I72
I637
I13
I242
I34
I46
I449
I35
I603
I27
I228
I473
I379
I209
I430
I190
I189
I12
I6
I10
I127
I65
I93
I8
I656
I114
I18
I48
I35
I16
I91
I79
I179
I250
I28
I56
I96
I40
I117
I62
I219
I62
I57
I127
I172
I21
I130
I28
I247
I206
I288
I348
I414
I391
I536
I654
I290
I1112
I1431
I598
I248
I260
tp74
a(I18215
I353
I99
I119
I101
I112
I112
I35
I75
I54
I267
I23
I51
I15
I28
I75
I196
I196
I50
I26
I132
I39
I36
I37
I21
I73
I106
I52
I35
I114
I52
I68
I251
I194
I93
I240
I179
I209
I13
I206
I198
I20
I283
I508
I12
I75
I196
I11
I4
I1208
I342
I736
I74
I21
I341
I172
I78
I94
I7
I6
I100
I78
I475
I173
I10
I7
I273
I142
I45
I57
I78
I77
I181
I25
I22
I43
I142
I80
I51
I6
I134
I190
I57
I166
I96
I48
I24
I819
I249
I33
I98
I88
I100
I336
I599
I1568
I1083
I1213
I482
I422
tp75
a(I18227
I417
I373
I860
I28
I37
I146
I77
I59
I35
I105
I136
I23
I53
I27
I387
I302
I19
I85
I152
I38
I34
I42
I70
I36
I171
I42
I7
I35
I66
I18
I132
I30
I156
I78
I213
I147
I8
I276
I24
I10
I15
I628
I621
I4
I199
I29
I4
I48
I4
I10
I4
I52
I8
I4
I100
I54
I103
I456
I225
I55
I375
I87
I727
I17
I416
I60
I77
I114
I355
I97
I35
I65
I16
I171
I167
I40
I109
I177
I19
I15
I37
I24
I120
I38
I24
I44
I122
I71
I168
I109
I129
I111
I29
I113
I280
I463
I1533
I1716
I2534
tp76
a(I18215
I101
I208
I169
I27
I8
I39
I19
I107
I694
I39
I16
I14
I127
I131
I29
I54
I18
I22
I46
I76
I68
I20
I69
I77
I42
I50
I143
I19
I90
I216
I132
I36
I402
I85
I148
I168
I20
I208
I35
I497
I812
I79
I219
I508
I642
I104
I194
I350
I978
I42
I61
I173
I121
I84
I79
I68
I40
I64
I141
I55
I156
I34
I19
I25
I18
I130
I13
I39
I105
I226
I80
I132
I49
I35
I78
I68
I28
I51
I41
I41
I280
I43
I73
I50
I267
I58
I48
I325
I235
I1102
I282
I55
I15
I3536
I890
I177
I15
I280
I11
tp77
a(I18215
I428
I252
I151
I422
I205
I68
I953
I468
I501
I1546
I77
I85
I40
I23
I16
I39
I16
I188
I52
I41
I87
I70
I70
I42
I45
I29
I190
I45
I19
I74
I29
I22
I77
I68
I20
I43
I19
I118
I88
I90
I32
I39
I174
I127
I235
I31
I4
I78
I112
I523
I139
I40
I189
I169
I7
I123
I255
I21
I4
I244
I373
I358
I27
I39
I149
I6
I77
I159
I104
I30
I33
I106
I40
I109
I30
I122
I41
I78
I296
I82
I400
I97
I45
I312
I65
I61
I273
I123
I206
I73
I295
I33
I1742
I2367
I8
I126
I116
I149
I281
tp78
a(I18215
I79
I310
I179
I390
I73
I323
I114
I55
I323
I36
I65
I77
I137
I179
I11
I35
I357
I142
I136
I18
I18
I66
I490
I73
I46
I374
I147
I90
I53
I234
I31
I27
I730
I64
I61
I57
I34
I69
I52
I234
I10
I19
I34
I9
I105
I162
I113
I492
I50
I126
I193
I589
I39
I72
I322
I108
I350
I45
I65
I194
I62
I197
I244
I86
I230
I256
I208
I382
I79
I39
I129
I39
I92
I264
I32
I124
I425
I231
I43
I111
I140
I45
I246
I436
I56
I198
I82
I216
I20
I77
I196
I351
I1048
I1136
I21
I9
I608
I308
I841
tp79
a(I18218
I490
I595
I104
I57
I327
I392
I135
I65
I731
I167
I56
I101
I63
I109
I281
I9
I58
I142
I91
I17
I29
I13
I380
I36
I107
I83
I66
I15
I88
I50
I32
I54
I17
I40
I142
I36
I94
I22
I52
I55
I15
I195
I48
I74
I243
I212
I24
I38
I27
I53
I157
I26
I24
I42
I237
I62
I23
I201
I234
I29
I362
I53
I969
I225
I358
I12
I15
I584
I175
I222
I130
I55
I155
I47
I18
I25
I118
I43
I27
I216
I98
I89
I67
I91
I153
I299
I188
I401
I209
I429
I12
I240
I328
I789
I1173
I2034
I393
I213
I10
tp80
a(I18223
I49
I240
I275
I71
I95
I99
I12
I52
I17
I107
I27
I30
I30
I209
I21
I621
I168
I150
I534
I131
I18
I28
I22
I42
I18
I58
I13
I82
I69
I48
I35
I79
I148
I90
I16
I351
I259
I44
I287
I483
I309
I21
I46
I1386
I783
I86
I4
I41
I6
I221
I33
I49
I17
I242
I156
I110
I135
I408
I89
I168
I143
I61
I34
I40
I25
I45
I25
I104
I15
I14
I135
I182
I181
I65
I40
I29
I79
I160
I42
I62
I259
I76
I207
I141
I127
I21
I39
I134
I24
I110
I146
I434
I645
I277
I23
I155
I519
I2613
I1516
tp81
a(I18215
I89
I158
I209
I305
I17
I15
I178
I78
I39
I25
I163
I31
I15
I19
I33
I99
I91
I38
I92
I245
I70
I31
I17
I44
I150
I31
I167
I18
I57
I42
I19
I483
I296
I746
I158
I118
I170
I460
I241
I198
I229
I211
I220
I6
I489
I98
I697
I921
I93
I9
I415
I72
I278
I125
I171
I131
I9
I32
I136
I182
I63
I95
I66
I30
I50
I19
I110
I40
I55
I12
I47
I85
I31
I22
I37
I51
I35
I78
I62
I80
I244
I152
I114
I31
I150
I89
I179
I92
I87
I302
I59
I199
I278
I226
I215
I402
I270
I3251
I1006
tp82
a(I18222
I130
I141
I232
I193
I25
I13
I39
I142
I53
I108
I74
I66
I62
I68
I9
I126
I25
I31
I69
I124
I118
I244
I63
I102
I47
I50
I115
I227
I17
I48
I9
I200
I15
I528
I63
I111
I6
I286
I17
I30
I866
I36
I161
I337
I29
I4
I47
I676
I461
I14
I518
I89
I183
I236
I139
I101
I72
I98
I75
I28
I58
I28
I127
I455
I39
I67
I50
I183
I89
I35
I26
I137
I139
I40
I49
I107
I237
I17
I141
I271
I68
I248
I200
I64
I72
I247
I65
I78
I344
I223
I319
I146
I586
I43
I639
I369
I526
I2339
I1319
tp83
a(I18217
I73
I96
I118
I28
I106
I28
I50
I20
I77
I49
I74
I107
I53
I23
I49
I68
I51
I113
I84
I18
I17
I186
I83
I104
I36
I105
I73
I25
I42
I31
I75
I31
I20
I161
I143
I420
I35
I124
I29
I184
I27
I86
I335
I226
I325
I594
I53
I211
I397
I65
I131
I505
I22
I1018
I53
I176
I346
I43
I73
I194
I10
I212
I95
I134
I308
I28
I118
I54
I170
I213
I47
I113
I104
I49
I34
I130
I52
I88
I308
I23
I106
I19
I87
I42
I43
I72
I36
I295
I1040
I256
I97
I22
I374
I30
I1497
I2229
I1159
I467
I141
tp84
a(I18239
I64
I203
I10
I138
I86
I91
I108
I59
I214
I27
I54
I56
I72
I183
I75
I135
I91
I151
I165
I45
I43
I24
I91
I86
I168
I104
I137
I34
I172
I218
I56
I75
I86
I301
I96
I15
I262
I692
I786
I176
I307
I193
I24
I161
I66
I379
I11
I334
I7
I146
I89
I557
I292
I25
I91
I194
I79
I503
I269
I84
I64
I12
I138
I177
I105
I136
I72
I119
I35
I104
I68
I77
I32
I63
I61
I81
I49
I278
I71
I160
I65
I35
I101
I149
I42
I25
I103
I25
I118
I91
I39
I373
I236
I246
I271
I634
I2539
I905
I1010
tp85
a(I18218
I70
I193
I386
I520
I17
I16
I55
I180
I102
I42
I132
I85
I167
I20
I51
I112
I90
I55
I92
I302
I201
I82
I14
I643
I64
I50
I225
I726
I25
I91
I6
I498
I193
I22
I453
I7
I363
I97
I214
I169
I821
I283
I285
I6
I100
I30
I187
I10
I100
I64
I234
I89
I36
I352
I188
I158
I64
I51
I78
I45
I23
I127
I42
I54
I158
I20
I40
I94
I46
I25
I166
I76
I62
I84
I125
I22
I14
I55
I94
I78
I80
I319
I111
I43
I231
I39
I113
I322
I76
I64
I62
I342
I219
I110
I315
I264
I3248
I554
I462
tp86
a(I18215
I310
I379
I95
I86
I41
I201
I227
I174
I154
I136
I221
I25
I352
I85
I109
I105
I134
I187
I225
I14
I32
I64
I474
I21
I226
I34
I254
I129
I146
I180
I53
I150
I107
I94
I156
I33
I36
I116
I27
I549
I309
I29
I458
I16
I263
I510
I10
I376
I21
I8
I93
I530
I30
I239
I13
I546
I12
I163
I194
I11
I10
I315
I311
I260
I104
I213
I129
I155
I213
I168
I98
I200
I65
I113
I57
I200
I48
I45
I91
I64
I47
I254
I47
I472
I32
I41
I14
I39
I30
I138
I433
I317
I119
I224
I58
I519
I1059
I771
I948
tp87
a(I18215
I159
I92
I112
I95
I24
I31
I336
I249
I359
I136
I339
I11
I62
I29
I126
I34
I30
I84
I105
I129
I23
I42
I96
I56
I57
I15
I68
I213
I415
I541
I401
I70
I169
I117
I654
I32
I23
I12
I487
I55
I203
I28
I322
I292
I30
I486
I102
I116
I56
I44
I104
I103
I163
I70
I71
I110
I49
I209
I236
I37
I99
I48
I146
I48
I147
I117
I28
I300
I62
I365
I35
I48
I36
I109
I35
I125
I61
I279
I10
I111
I41
I163
I82
I27
I142
I144
I210
I118
I604
I111
I146
I448
I431
I28
I2232
I490
I166
I1329
I353
tp88
a(I18215
I61
I279
I36
I108
I186
I184
I208
I90
I76
I210
I42
I60
I449
I821
I207
I11
I73
I94
I117
I45
I416
I147
I54
I37
I127
I124
I40
I262
I21
I102
I22
I147
I136
I115
I122
I117
I12
I48
I28
I28
I113
I13
I202
I27
I105
I49
I45
I13
I41
I213
I311
I49
I262
I518
I45
I37
I557
I481
I21
I182
I308
I375
I90
I64
I16
I174
I216
I253
I203
I190
I91
I51
I110
I98
I22
I112
I163
I39
I62
I20
I233
I123
I53
I130
I59
I290
I64
I164
I236
I253
I134
I262
I46
I73
I167
I99
I390
I4071
I143
tp89
a(I18220
I57
I52
I30
I39
I12
I29
I91
I18
I84
I17
I74
I115
I40
I65
I52
I83
I92
I20
I54
I55
I35
I145
I63
I42
I14
I83
I261
I168
I196
I50
I228
I266
I108
I57
I347
I46
I32
I202
I52
I631
I109
I38
I557
I1762
I220
I149
I103
I55
I107
I565
I977
I113
I73
I25
I98
I80
I56
I47
I288
I144
I68
I159
I38
I92
I230
I130
I132
I120
I35
I45
I13
I72
I217
I242
I26
I96
I264
I332
I35
I239
I193
I23
I229
I366
I110
I60
I109
I27
I80
I83
I106
I242
I507
I214
I741
I1867
I7
I1157
I11
tp90
a(I18225
I272
I254
I118
I136
I131
I426
I149
I93
I49
I37
I206
I150
I378
I10
I18
I86
I113
I17
I70
I24
I84
I15
I91
I20
I106
I34
I69
I74
I25
I39
I36
I82
I138
I22
I267
I58
I91
I8
I23
I225
I185
I73
I40
I85
I113
I99
I8
I476
I97
I168
I9
I347
I526
I343
I55
I26
I144
I330
I497
I126
I66
I79
I30
I221
I31
I363
I499
I65
I93
I395
I142
I86
I74
I64
I50
I92
I66
I93
I89
I46
I34
I69
I225
I57
I57
I73
I226
I81
I281
I111
I292
I252
I403
I406
I39
I2009
I1271
I1544
I318
tp91
a(I18215
I174
I70
I213
I124
I41
I105
I46
I45
I50
I16
I11
I17
I23
I16
I58
I17
I10
I208
I55
I36
I282
I63
I36
I128
I457
I13
I20
I117
I21
I23
I74
I176
I132
I38
I99
I35
I70
I266
I145
I118
I61
I232
I168
I6
I8
I30
I16
I117
I728
I669
I245
I718
I8
I349
I217
I122
I43
I20
I284
I98
I68
I120
I102
I151
I88
I652
I120
I121
I47
I179
I45
I315
I78
I35
I365
I40
I29
I79
I17
I150
I64
I56
I89
I103
I68
I81
I44
I90
I86
I99
I64
I728
I756
I1017
I1319
I22
I1882
I595
I642
tp92
a(I18215
I345
I306
I31
I87
I76
I360
I415
I147
I97
I200
I44
I28
I7
I169
I138
I76
I563
I350
I48
I23
I62
I35
I20
I121
I104
I42
I238
I282
I37
I189
I64
I19
I51
I21
I129
I40
I120
I53
I145
I107
I77
I233
I20
I17
I279
I281
I488
I151
I60
I173
I119
I32
I193
I578
I10
I40
I135
I153
I34
I11
I133
I38
I344
I82
I662
I28
I156
I30
I46
I144
I25
I95
I46
I128
I124
I129
I92
I395
I99
I77
I185
I80
I248
I78
I32
I77
I142
I55
I172
I100
I61
I70
I212
I350
I68
I1184
I3445
I479
I9
tp93
a(I18219
I24
I63
I56
I38
I85
I115
I19
I61
I58
I139
I15
I27
I44
I57
I23
I264
I176
I138
I59
I129
I136
I39
I334
I65
I120
I54
I53
I585
I161
I386
I20
I282
I158
I341
I542
I111
I93
I194
I323
I191
I81
I94
I170
I169
I225
I244
I65
I238
I27
I135
I249
I231
I92
I222
I20
I31
I22
I26
I50
I92
I98
I90
I102
I482
I89
I37
I12
I56
I27
I33
I145
I22
I117
I66
I26
I45
I75
I48
I66
I19
I168
I89
I52
I194
I158
I22
I244
I75
I187
I181
I324
I423
I145
I214
I513
I362
I215
I3781
I1126
tp94
a(I18215
I336
I286
I147
I166
I230
I47
I88
I72
I52
I321
I272
I33
I47
I58
I28
I193
I95
I72
I111
I51
I31
I35
I104
I346
I55
I31
I293
I50
I22
I78
I42
I112
I55
I529
I129
I114
I54
I62
I25
I209
I144
I27
I250
I110
I412
I629
I267
I94
I7
I198
I705
I153
I168
I12
I8
I55
I89
I134
I98
I66
I226
I149
I75
I147
I65
I179
I182
I183
I193
I77
I117
I29
I106
I57
I43
I45
I66
I45
I62
I110
I65
I153
I99
I82
I260
I79
I24
I90
I21
I205
I48
I573
I199
I238
I2439
I1169
I137
I1308
I341
tp95
a(I18227
I364
I221
I58
I129
I50
I16
I46
I41
I216
I53
I275
I383
I137
I72
I74
I222
I82
I42
I48
I44
I24
I23
I280
I152
I59
I95
I11
I102
I105
I149
I208
I384
I37
I17
I95
I73
I304
I77
I7
I14
I7
I6
I495
I7
I527
I107
I15
I14
I226
I346
I108
I72
I105
I1091
I56
I102
I281
I73
I634
I32
I53
I68
I33
I118
I48
I55
I35
I314
I126
I40
I148
I96
I103
I27
I24
I40
I25
I54
I28
I37
I337
I34
I66
I198
I34
I26
I48
I33
I53
I45
I77
I629
I103
I212
I279
I222
I540
I47
I4833
tp96
a(I18225
I94
I2029
I906
I450
I44
I32
I21
I205
I75
I74
I64
I18
I310
I261
I298
I91
I128
I232
I147
I26
I186
I210
I33
I162
I22
I299
I24
I16
I18
I11
I418
I30
I22
I28
I28
I64
I42
I136
I19
I188
I25
I68
I26
I81
I52
I161
I32
I22
I24
I310
I71
I62
I38
I535
I213
I181
I141
I4
I686
I30
I55
I142
I159
I81
I33
I222
I96
I56
I113
I46
I14
I27
I113
I18
I69
I99
I146
I55
I65
I93
I89
I126
I141
I49
I22
I49
I13
I218
I38
I91
I46
I66
I56
I88
I368
I2617
I1753
I298
I330
tp97
a(I18215
I713
I70
I378
I391
I293
I25
I234
I104
I179
I116
I42
I78
I58
I191
I107
I330
I97
I87
I56
I50
I434
I110
I51
I29
I37
I92
I89
I139
I149
I16
I377
I58
I50
I32
I50
I49
I68
I47
I44
I30
I253
I33
I251
I77
I13
I13
I265
I74
I21
I61
I25
I14
I110
I456
I246
I71
I257
I612
I161
I277
I113
I580
I123
I47
I33
I45
I11
I21
I123
I174
I138
I250
I226
I47
I112
I131
I59
I61
I111
I127
I40
I5
I45
I121
I257
I423
I55
I341
I218
I265
I326
I564
I235
I22
I1145
I2275
I70
I228
I386
tp98
a(I18215
I360
I426
I424
I395
I40
I65
I16
I48
I68
I27
I203
I94
I95
I589
I178
I195
I108
I32
I38
I280
I100
I143
I523
I56
I21
I57
I164
I686
I36
I31
I32
I209
I275
I129
I44
I29
I49
I115
I290
I85
I162
I11
I105
I49
I27
I61
I224
I387
I118
I8
I350
I9
I304
I36
I432
I109
I131
I518
I29
I590
I52
I24
I69
I6
I13
I352
I12
I200
I108
I174
I109
I39
I191
I69
I56
I315
I27
I49
I210
I122
I112
I45
I51
I9
I79
I42
I36
I65
I126
I200
I125
I128
I240
I293
I381
I21
I1203
I2221
I404
tp99
a(I18237
I240
I128
I17
I41
I30
I113
I22
I80
I62
I184
I90
I167
I41
I82
I89
I33
I180
I101
I71
I73
I27
I37
I119
I315
I66
I454
I184
I12
I26
I12
I126
I268
I52
I74
I738
I223
I353
I424
I225
I368
I529
I94
I256
I278
I220
I16
I115
I525
I169
I34
I74
I83
I84
I55
I23
I48
I183
I48
I73
I144
I19
I24
I38
I86
I150
I74
I26
I331
I24
I139
I111
I56
I18
I157
I59
I41
I51
I14
I73
I20
I129
I42
I30
I235
I32
I98
I52
I149
I91
I82
I128
I72
I490
I45
I1548
I302
I3074
I877
I386
tp100
a(I18223
I132
I170
I45
I60
I17
I152
I71
I21
I171
I76
I65
I307
I127
I37
I68
I49
I22
I15
I65
I26
I57
I62
I51
I47
I136
I47
I293
I59
I41
I89
I28
I23
I347
I41
I392
I63
I29
I10
I514
I48
I429
I607
I290
I30
I8
I62
I163
I725
I161
I91
I876
I54
I13
I111
I137
I116
I181
I133
I57
I48
I133
I189
I163
I110
I198
I35
I57
I101
I207
I31
I45
I29
I290
I170
I111
I77
I103
I87
I34
I29
I97
I29
I89
I33
I68
I72
I1034
I65
I70
I286
I73
I300
I255
I260
I242
I631
I3195
I701
I321
tp101
a(I18220
I53
I66
I56
I85
I92
I47
I112
I26
I44
I98
I64
I96
I68
I40
I29
I39
I66
I130
I32
I316
I71
I50
I12
I37
I128
I122
I217
I68
I50
I112
I64
I188
I91
I33
I260
I26
I59
I53
I121
I13
I533
I976
I357
I284
I420
I329
I60
I61
I55
I43
I17
I94
I6
I24
I490
I379
I374
I355
I323
I507
I175
I81
I35
I128
I41
I23
I69
I262
I43
I24
I25
I79
I95
I83
I44
I85
I34
I264
I50
I27
I40
I38
I51
I293
I35
I75
I26
I62
I48
I488
I114
I210
I18
I138
I159
I210
I638
I4250
I807
tp102
a(I18215
I1352
I1004
I74
I286
I233
I441
I44
I158
I457
I139
I20
I120
I58
I289
I21
I780
I106
I36
I94
I192
I111
I22
I81
I22
I38
I81
I117
I41
I54
I46
I7
I136
I14
I15
I87
I8
I106
I59
I34
I43
I46
I6
I5
I320
I32
I140
I547
I176
I531
I63
I91
I311
I79
I18
I87
I55
I195
I261
I8
I246
I190
I9
I8
I129
I83
I121
I28
I268
I271
I99
I127
I47
I151
I55
I29
I61
I22
I104
I77
I69
I74
I88
I53
I60
I61
I45
I39
I59
I82
I226
I85
I45
I70
I101
I80
I202
I178
I448
I4206
tp103
a(I18219
I168
I59
I121
I387
I49
I9
I25
I106
I31
I95
I28
I171
I14
I39
I19
I106
I33
I57
I23
I47
I131
I235
I92
I47
I15
I182
I23
I18
I132
I100
I67
I332
I291
I23
I125
I35
I778
I138
I468
I259
I75
I39
I311
I188
I54
I71
I9
I269
I1056
I21
I7
I119
I233
I210
I574
I6
I55
I147
I125
I29
I105
I41
I33
I537
I110
I139
I200
I93
I60
I84
I371
I23
I29
I139
I80
I79
I22
I56
I38
I83
I44
I83
I342
I158
I205
I232
I35
I111
I71
I845
I124
I76
I149
I47
I612
I150
I23
I320
I3764
tp104
a(I18215
I1412
I384
I684
I127
I91
I311
I375
I57
I79
I350
I180
I31
I360
I70
I129
I182
I34
I66
I303
I160
I34
I93
I102
I269
I130
I18
I41
I45
I130
I83
I66
I45
I8
I9
I17
I31
I13
I26
I73
I124
I40
I7
I37
I48
I18
I28
I13
I346
I5
I7
I13
I9
I32
I414
I110
I20
I8
I551
I127
I10
I143
I239
I182
I36
I124
I5
I470
I270
I585
I159
I41
I202
I401
I141
I70
I141
I40
I177
I34
I177
I75
I135
I285
I122
I188
I124
I62
I131
I276
I299
I145
I207
I34
I501
I330
I497
I600
I2014
I146
tp105
a(I18229
I95
I49
I34
I21
I86
I106
I150
I69
I407
I591
I28
I21
I127
I67
I119
I39
I90
I403
I57
I44
I111
I131
I19
I96
I277
I114
I76
I143
I35
I108
I243
I349
I29
I287
I55
I67
I24
I153
I471
I27
I252
I33
I108
I148
I140
I63
I199
I47
I23
I143
I39
I189
I61
I171
I37
I193
I61
I26
I46
I113
I300
I245
I285
I156
I122
I166
I175
I8
I59
I75
I108
I64
I87
I252
I96
I241
I30
I114
I134
I77
I26
I103
I264
I64
I45
I33
I114
I56
I264
I278
I17
I183
I277
I300
I107
I246
I217
I17
I5464
tp106
a(I18215
I112
I30
I69
I47
I247
I91
I29
I41
I17
I38
I109
I66
I57
I37
I299
I266
I72
I41
I129
I316
I48
I34
I66
I37
I29
I107
I93
I83
I182
I34
I32
I467
I17
I41
I266
I460
I22
I16
I1906
I6
I5
I1207
I111
I9
I95
I1060
I20
I138
I41
I56
I5
I165
I92
I61
I217
I34
I73
I53
I31
I98
I199
I52
I14
I42
I30
I72
I30
I117
I27
I99
I35
I31
I10
I28
I193
I11
I11
I203
I43
I419
I23
I18
I66
I207
I76
I19
I133
I108
I164
I473
I53
I403
I248
I26
I1840
I323
I287
I1255
I1375
tp107
a(I18215
I442
I35
I172
I157
I51
I30
I55
I45
I183
I96
I48
I19
I59
I15
I199
I28
I31
I120
I45
I158
I29
I34
I65
I38
I303
I285
I210
I16
I100
I39
I25
I83
I20
I11
I86
I23
I113
I97
I49
I116
I303
I15
I233
I25
I81
I152
I53
I28
I16
I18
I134
I7
I578
I153
I1107
I83
I300
I297
I110
I81
I86
I15
I557
I687
I37
I102
I37
I43
I65
I113
I143
I13
I81
I76
I132
I86
I121
I24
I28
I46
I364
I115
I166
I200
I30
I114
I47
I118
I78
I245
I126
I427
I136
I477
I267
I5358
I6
I7
I116
tp108
a(I18215
I378
I326
I262
I394
I93
I141
I600
I216
I389
I244
I73
I100
I14
I83
I163
I63
I353
I232
I39
I166
I364
I69
I187
I29
I48
I75
I122
I85
I61
I120
I82
I79
I148
I69
I69
I52
I24
I135
I130
I35
I43
I13
I76
I18
I27
I62
I29
I536
I15
I100
I147
I373
I57
I23
I37
I63
I160
I222
I972
I145
I738
I104
I43
I65
I157
I123
I70
I207
I60
I136
I68
I95
I360
I38
I118
I28
I159
I41
I236
I41
I88
I133
I173
I56
I273
I37
I175
I72
I237
I201
I155
I264
I570
I1414
I914
I427
I490
I211
I186
tp109
a(I18227
I525
I100
I272
I34
I36
I195
I48
I238
I11
I100
I32
I22
I19
I63
I144
I84
I457
I76
I160
I34
I226
I88
I300
I60
I69
I224
I125
I14
I149
I20
I140
I30
I432
I12
I146
I10
I50
I60
I83
I336
I363
I20
I42
I14
I9
I68
I37
I85
I724
I271
I6
I13
I99
I921
I421
I65
I224
I244
I14
I382
I8
I83
I11
I90
I10
I80
I135
I50
I58
I20
I143
I46
I119
I509
I119
I32
I102
I82
I152
I49
I70
I33
I108
I128
I39
I47
I85
I30
I40
I45
I42
I210
I118
I153
I410
I284
I428
I503
I4464
tp110
a(I18215
I471
I365
I592
I476
I44
I87
I61
I163
I22
I89
I316
I18
I54
I75
I137
I18
I43
I249
I37
I32
I660
I143
I19
I58
I101
I398
I53
I35
I252
I49
I44
I128
I88
I236
I37
I92
I139
I56
I71
I36
I33
I42
I64
I6
I27
I6
I200
I50
I8
I280
I23
I1641
I7
I487
I513
I56
I69
I94
I49
I214
I130
I19
I283
I34
I132
I13
I9
I255
I194
I132
I155
I107
I114
I45
I53
I37
I177
I115
I186
I28
I75
I32
I119
I137
I55
I74
I175
I299
I320
I52
I37
I274
I6
I3
I281
I754
I1344
I1998
I227
tp111
a(I18231
I108
I71
I97
I39
I34
I134
I12
I102
I124
I89
I40
I47
I149
I36
I31
I49
I33
I86
I70
I45
I76
I381
I35
I82
I46
I140
I25
I92
I45
I374
I68
I19
I518
I424
I115
I1116
I67
I83
I64
I101
I126
I29
I206
I136
I26
I469
I449
I73
I159
I9
I113
I154
I6
I6
I91
I292
I291
I78
I49
I25
I342
I10
I30
I178
I116
I233
I132
I39
I76
I111
I96
I98
I45
I98
I65
I39
I35
I23
I329
I17
I99
I50
I163
I54
I99
I263
I102
I343
I221
I69
I192
I201
I405
I300
I2072
I1849
I904
I622
I203
tp112
a(I18215
I203
I360
I677
I23
I64
I95
I137
I81
I50
I308
I179
I314
I189
I146
I17
I146
I28
I29
I160
I85
I43
I1304
I47
I49
I101
I16
I99
I288
I145
I76
I60
I57
I20
I36
I32
I179
I138
I157
I37
I230
I8
I12
I62
I197
I124
I570
I131
I53
I96
I280
I209
I224
I157
I366
I40
I17
I91
I13
I477
I87
I589
I159
I18
I49
I97
I279
I24
I67
I34
I41
I17
I134
I32
I70
I127
I78
I91
I290
I155
I158
I71
I22
I55
I70
I52
I222
I113
I28
I80
I181
I183
I89
I90
I223
I840
I1533
I17
I996
I1400
tp113
a(I18215
I1193
I506
I360
I13
I82
I719
I24
I189
I85
I92
I32
I91
I75
I81
I304
I55
I180
I156
I16
I47
I37
I102
I32
I103
I179
I71
I23
I24
I177
I138
I135
I24
I262
I15
I49
I65
I342
I11
I82
I96
I8
I29
I7
I20
I189
I214
I232
I84
I17
I116
I136
I143
I5
I170
I358
I71
I15
I65
I117
I233
I386
I144
I525
I219
I331
I152
I267
I22
I298
I53
I15
I21
I43
I121
I52
I378
I23
I336
I23
I113
I164
I89
I45
I60
I113
I89
I33
I56
I31
I27
I176
I356
I46
I26
I404
I4348
I51
I114
I147
tp114
a(I18215
I93
I118
I118
I95
I31
I106
I14
I137
I67
I45
I31
I45
I98
I158
I212
I100
I120
I92
I62
I58
I49
I54
I96
I108
I59
I172
I48
I204
I419
I38
I70
I300
I221
I371
I501
I55
I171
I27
I171
I226
I371
I62
I54
I175
I439
I139
I129
I90
I39
I598
I59
I117
I325
I116
I544
I53
I206
I84
I132
I111
I94
I90
I57
I248
I46
I73
I51
I111
I264
I324
I102
I62
I65
I48
I22
I83
I180
I258
I237
I79
I57
I67
I29
I23
I125
I208
I59
I83
I53
I348
I251
I219
I205
I22
I429
I185
I356
I4104
I73
tp115
a(I18215
I1885
I474
I89
I109
I108
I541
I146
I54
I69
I595
I153
I65
I882
I133
I37
I92
I31
I979
I101
I169
I106
I36
I166
I93
I41
I37
I50
I75
I164
I85
I94
I66
I54
I118
I18
I119
I74
I119
I92
I131
I92
I16
I26
I42
I277
I400
I262
I27
I54
I200
I25
I31
I65
I190
I232
I82
I430
I14
I28
I73
I12
I73
I96
I16
I114
I301
I14
I31
I345
I87
I136
I30
I18
I195
I465
I40
I432
I27
I55
I72
I78
I82
I50
I146
I39
I66
I68
I237
I51
I197
I137
I4
I438
I34
I2395
I28
I579
I89
I100
tp116
a(I18222
I63
I314
I168
I31
I72
I234
I234
I38
I85
I103
I169
I62
I61
I26
I28
I85
I136
I46
I77
I132
I75
I397
I275
I64
I363
I464
I22
I21
I62
I604
I661
I458
I6
I1044
I684
I62
I126
I242
I61
I9
I234
I125
I93
I109
I27
I6
I350
I149
I93
I57
I59
I5
I102
I59
I46
I97
I42
I120
I64
I204
I222
I26
I123
I125
I33
I196
I58
I95
I27
I21
I50
I122
I92
I18
I74
I114
I60
I100
I24
I52
I219
I20
I267
I59
I38
I192
I252
I183
I76
I106
I230
I124
I452
I486
I409
I560
I1591
I1081
I504
tp117
a(I18215
I118
I62
I34
I210
I356
I100
I42
I223
I555
I828
I450
I597
I313
I287
I63
I291
I1406
I97
I52
I44
I30
I23
I63
I23
I24
I22
I82
I31
I72
I20
I47
I88
I31
I56
I34
I45
I52
I33
I88
I25
I21
I49
I113
I57
I63
I66
I40
I210
I8
I451
I252
I153
I104
I182
I206
I43
I85
I782
I249
I289
I117
I16
I113
I12
I227
I6
I14
I114
I7
I548
I179
I14
I83
I76
I55
I45
I47
I152
I102
I39
I92
I101
I7
I30
I687
I183
I83
I52
I42
I18
I100
I75
I157
I427
I208
I1460
I716
I1210
I339
tp118
a(I18224
I110
I122
I179
I42
I130
I115
I134
I54
I185
I27
I288
I28
I106
I27
I158
I49
I228
I59
I32
I22
I89
I28
I32
I76
I107
I31
I164
I310
I60
I64
I223
I131
I194
I59
I42
I207
I40
I162
I143
I360
I428
I392
I436
I724
I92
I152
I89
I676
I98
I69
I36
I432
I557
I28
I120
I165
I79
I69
I155
I115
I109
I125
I115
I142
I130
I24
I36
I84
I76
I53
I84
I13
I312
I142
I127
I55
I32
I26
I27
I58
I200
I244
I181
I277
I43
I93
I30
I86
I68
I22
I314
I172
I297
I362
I329
I338
I740
I957
I2332
tp119
a(I18215
I247
I117
I272
I207
I88
I82
I184
I125
I126
I122
I85
I88
I73
I258
I257
I274
I51
I156
I112
I40
I50
I46
I70
I295
I48
I232
I315
I62
I390
I97
I89
I44
I27
I188
I95
I23
I91
I108
I52
I41
I60
I165
I60
I342
I76
I69
I55
I99
I756
I29
I227
I20
I240
I79
I566
I698
I232
I343
I260
I264
I145
I207
I143
I34
I197
I102
I109
I101
I108
I94
I34
I35
I31
I90
I52
I66
I21
I65
I33
I50
I151
I177
I47
I74
I196
I34
I25
I271
I122
I105
I93
I142
I109
I423
I570
I201
I26
I2506
I1437
tp120
a(I18233
I123
I130
I79
I148
I133
I19
I67
I122
I116
I11
I9
I57
I144
I34
I76
I37
I308
I118
I55
I16
I99
I96
I111
I60
I47
I68
I76
I21
I264
I172
I35
I55
I52
I241
I36
I130
I318
I204
I58
I39
I59
I33
I6
I29
I387
I826
I407
I338
I54
I462
I167
I94
I78
I502
I4
I311
I55
I5
I546
I119
I102
I186
I120
I14
I189
I69
I64
I116
I94
I98
I50
I95
I740
I49
I64
I24
I115
I154
I174
I105
I50
I27
I34
I41
I95
I338
I112
I28
I416
I221
I195
I787
I592
I137
I502
I917
I458
I1420
I917
tp121
a(I18216
I3752
I176
I78
I194
I41
I233
I23
I53
I308
I114
I56
I53
I221
I23
I273
I41
I116
I85
I215
I283
I73
I649
I68
I60
I39
I6
I111
I23
I6
I45
I62
I141
I6
I56
I46
I120
I191
I5
I6
I4
I5
I4
I24
I9
I4
I391
I27
I57
I4
I200
I81
I94
I65
I186
I300
I407
I83
I58
I118
I17
I22
I823
I232
I199
I61
I75
I133
I24
I279
I87
I20
I54
I91
I29
I34
I72
I222
I91
I13
I96
I57
I167
I53
I133
I81
I172
I42
I289
I53
I113
I287
I378
I520
I761
I254
I1447
I182
I195
I362
tp122
a(I18216
I163
I145
I93
I28
I35
I145
I170
I159
I160
I11
I26
I69
I42
I35
I78
I272
I10
I148
I51
I36
I95
I30
I26
I33
I195
I44
I58
I89
I65
I114
I28
I17
I48
I354
I221
I313
I263
I719
I617
I4
I1242
I11
I32
I70
I11
I123
I54
I28
I19
I6
I113
I246
I107
I48
I428
I568
I57
I151
I114
I214
I55
I74
I13
I199
I17
I7
I136
I12
I11
I292
I73
I76
I16
I67
I75
I68
I307
I107
I51
I658
I39
I28
I260
I99
I107
I167
I24
I59
I45
I80
I303
I274
I429
I58
I172
I366
I616
I3385
I716
tp123
a(I18216
I86
I82
I37
I181
I140
I62
I89
I19
I59
I50
I104
I147
I90
I16
I56
I13
I53
I162
I214
I23
I13
I24
I32
I54
I73
I25
I32
I45
I307
I51
I14
I152
I43
I84
I370
I73
I28
I66
I15
I63
I1270
I1462
I483
I13
I73
I276
I224
I1124
I178
I96
I985
I4
I167
I28
I126
I4
I571
I47
I154
I72
I25
I163
I126
I34
I17
I42
I31
I29
I62
I55
I438
I32
I36
I84
I103
I35
I385
I75
I143
I111
I23
I277
I42
I84
I134
I234
I16
I16
I64
I156
I219
I229
I300
I84
I897
I237
I595
I1174
I981
tp124
a(I18237
I220
I207
I32
I28
I40
I29
I324
I104
I22
I155
I38
I432
I85
I150
I89
I29
I12
I395
I301
I180
I379
I22
I24
I44
I10
I53
I40
I88
I22
I377
I37
I59
I13
I517
I829
I6
I364
I41
I407
I120
I357
I803
I566
I475
I6
I86
I306
I238
I174
I294
I93
I144
I42
I30
I44
I86
I32
I33
I15
I27
I15
I57
I54
I16
I14
I31
I37
I21
I80
I16
I56
I50
I19
I15
I208
I14
I38
I6
I51
I20
I73
I84
I56
I26
I330
I138
I101
I45
I35
I109
I246
I125
I129
I30
I421
I779
I149
I3883
I619
tp125
a(I18236
I74
I548
I963
I517
I38
I18
I54
I117
I149
I394
I410
I79
I29
I119
I110
I240
I49
I21
I304
I75
I179
I278
I15
I134
I124
I41
I103
I75
I79
I307
I152
I39
I80
I99
I115
I115
I22
I118
I134
I66
I66
I240
I30
I107
I114
I58
I169
I119
I73
I50
I28
I169
I6
I73
I8
I4
I199
I638
I492
I114
I132
I284
I74
I305
I37
I138
I121
I113
I160
I53
I66
I110
I31
I136
I66
I163
I524
I46
I45
I73
I51
I160
I29
I35
I47
I293
I275
I172
I136
I243
I116
I136
I557
I144
I709
I1685
I1209
I231
I127
tp126
a(I18215
I278
I371
I178
I66
I247
I351
I115
I225
I13
I362
I211
I73
I73
I56
I142
I36
I188
I197
I172
I49
I65
I48
I103
I24
I55
I55
I245
I89
I59
I50
I76
I241
I246
I115
I104
I51
I7
I8
I104
I148
I181
I428
I55
I24
I37
I712
I61
I38
I138
I106
I557
I222
I244
I38
I4
I9
I423
I116
I141
I72
I501
I178
I148
I32
I38
I233
I43
I42
I32
I73
I77
I58
I127
I71
I10
I37
I34
I284
I40
I38
I84
I60
I65
I401
I42
I68
I40
I46
I53
I87
I42
I60
I71
I192
I412
I509
I519
I4336
I308
tp127
a(I18216
I191
I205
I17
I121
I228
I26
I37
I70
I65
I60
I68
I81
I27
I26
I39
I213
I247
I37
I55
I24
I108
I208
I29
I161
I54
I28
I24
I260
I12
I44
I89
I32
I36
I39
I64
I252
I144
I113
I6
I244
I546
I1004
I689
I39
I106
I1117
I696
I102
I36
I6
I53
I87
I196
I11
I298
I76
I148
I84
I654
I78
I135
I52
I85
I20
I66
I254
I24
I18
I31
I38
I56
I52
I97
I20
I49
I34
I42
I32
I60
I67
I42
I152
I33
I99
I39
I63
I387
I155
I327
I26
I235
I503
I735
I208
I38
I1037
I1990
I635
I646
tp128
a(I18216
I49
I44
I8
I18
I68
I244
I78
I18
I63
I5
I23
I114
I35
I116
I32
I58
I31
I89
I43
I97
I194
I52
I36
I121
I64
I585
I135
I281
I191
I86
I465
I102
I351
I45
I65
I285
I152
I969
I259
I349
I24
I750
I145
I85
I95
I19
I205
I88
I323
I45
I129
I40
I131
I10
I119
I51
I108
I213
I34
I183
I148
I109
I44
I448
I72
I44
I60
I135
I128
I28
I91
I38
I90
I24
I58
I226
I198
I61
I22
I101
I280
I233
I427
I78
I177
I118
I28
I71
I17
I499
I115
I179
I295
I273
I514
I201
I523
I2625
I797
tp129
a(I18215
I274
I254
I159
I22
I195
I34
I125
I23
I97
I58
I298
I29
I123
I40
I216
I124
I1549
I16
I42
I31
I61
I43
I17
I101
I70
I75
I99
I33
I31
I24
I35
I183
I86
I13
I43
I185
I113
I164
I505
I170
I107
I13
I40
I15
I208
I87
I136
I5
I7
I48
I11
I342
I363
I443
I507
I191
I361
I350
I36
I7
I148
I75
I40
I35
I31
I75
I118
I96
I33
I37
I21
I24
I162
I21
I20
I29
I140
I46
I49
I71
I38
I201
I67
I175
I53
I64
I82
I47
I42
I54
I156
I268
I46
I55
I176
I129
I2175
I4013
I244
tp130
a(I18228
I381
I273
I699
I24
I16
I320
I19
I38
I259
I36
I30
I490
I23
I507
I94
I190
I53
I88
I208
I107
I79
I41
I80
I94
I42
I34
I9
I7
I29
I434
I62
I38
I15
I7
I24
I20
I42
I48
I14
I56
I119
I625
I113
I476
I18
I108
I5
I147
I13
I273
I329
I541
I7
I24
I220
I164
I222
I8
I155
I151
I146
I106
I154
I74
I108
I355
I49
I135
I617
I53
I69
I59
I36
I202
I52
I32
I40
I149
I65
I45
I66
I38
I44
I26
I78
I58
I104
I92
I114
I88
I60
I440
I79
I336
I307
I297
I212
I1548
I3099
tp131
a(I18230
I34
I25
I117
I75
I184
I147
I175
I80
I29
I55
I526
I94
I15
I24
I154
I257
I39
I18
I175
I71
I22
I26
I35
I27
I71
I210
I106
I29
I25
I28
I53
I88
I34
I597
I73
I84
I149
I285
I17
I144
I17
I6
I340
I461
I872
I350
I5
I174
I25
I175
I629
I8
I592
I37
I87
I10
I43
I11
I49
I99
I371
I71
I389
I101
I148
I291
I14
I19
I133
I46
I95
I17
I62
I104
I55
I35
I98
I71
I33
I38
I21
I41
I300
I363
I29
I77
I207
I47
I51
I322
I129
I422
I455
I277
I164
I488
I2094
I783
I1530
tp132
a(I18235
I206
I153
I148
I27
I58
I107
I177
I83
I286
I95
I47
I11
I199
I653
I58
I445
I15
I103
I105
I93
I38
I89
I106
I162
I12
I64
I62
I41
I32
I401
I30
I59
I37
I81
I116
I152
I64
I296
I44
I196
I45
I30
I365
I452
I146
I547
I465
I19
I125
I384
I405
I145
I130
I22
I114
I430
I17
I8
I65
I442
I127
I60
I39
I54
I114
I190
I20
I20
I46
I45
I81
I21
I13
I19
I44
I215
I81
I197
I170
I26
I213
I104
I98
I55
I86
I236
I41
I160
I43
I49
I389
I585
I193
I398
I19
I131
I2472
I1304
I708
tp133
a(I18219
I57
I234
I252
I50
I104
I208
I360
I97
I18
I83
I284
I182
I23
I323
I58
I57
I485
I18
I63
I32
I53
I37
I51
I141
I124
I75
I117
I23
I64
I87
I13
I82
I286
I152
I21
I63
I123
I66
I232
I46
I164
I26
I88
I148
I111
I140
I173
I62
I21
I15
I29
I85
I34
I132
I65
I91
I166
I627
I5
I436
I25
I158
I261
I229
I390
I280
I281
I85
I13
I98
I87
I411
I73
I131
I87
I100
I351
I56
I114
I75
I61
I422
I126
I88
I60
I185
I143
I243
I75
I101
I27
I376
I464
I77
I281
I729
I2761
I831
I572
tp134
a(I18215
I83
I206
I191
I59
I47
I25
I57
I106
I165
I246
I65
I859
I373
I99
I53
I19
I109
I176
I18
I10
I107
I33
I23
I98
I125
I73
I106
I40
I257
I37
I113
I46
I28
I203
I71
I26
I42
I365
I59
I28
I224
I24
I551
I58
I50
I102
I65
I20
I418
I286
I150
I329
I493
I78
I568
I49
I443
I6
I8
I146
I198
I107
I289
I140
I64
I127
I39
I248
I125
I66
I119
I301
I61
I177
I291
I45
I28
I319
I96
I225
I97
I100
I79
I44
I237
I66
I207
I29
I188
I299
I205
I172
I836
I1470
I738
I658
I15
I668
I306
tp135
a(I18248
I214
I187
I165
I104
I323
I80
I618
I21
I46
I532
I51
I55
I79
I19
I56
I57
I532
I44
I175
I31
I93
I80
I31
I57
I53
I73
I74
I301
I158
I17
I29
I24
I45
I75
I40
I47
I65
I65
I18
I98
I53
I77
I27
I70
I43
I52
I177
I84
I127
I84
I12
I6
I296
I269
I107
I91
I32
I52
I631
I796
I39
I543
I44
I602
I16
I113
I205
I8
I205
I26
I169
I104
I20
I228
I39
I50
I132
I52
I452
I35
I107
I162
I41
I67
I85
I47
I193
I42
I620
I115
I85
I84
I148
I235
I994
I2359
I1112
I205
I659
tp136
a(I18215
I74
I422
I515
I106
I325
I16
I357
I87
I215
I390
I85
I247
I325
I48
I220
I76
I213
I43
I15
I29
I382
I86
I183
I80
I46
I23
I87
I96
I35
I65
I73
I13
I42
I33
I199
I192
I77
I65
I88
I146
I14
I71
I139
I9
I4
I5
I672
I301
I176
I19
I220
I7
I10
I642
I140
I144
I12
I8
I314
I6
I455
I144
I85
I25
I983
I4
I5
I151
I55
I42
I29
I83
I89
I24
I31
I157
I183
I79
I54
I223
I138
I60
I338
I106
I209
I99
I26
I46
I99
I197
I85
I129
I144
I38
I146
I311
I1714
I2569
I306
tp137
a(I18215
I31
I41
I114
I136
I86
I106
I86
I12
I59
I16
I10
I113
I51
I317
I64
I31
I71
I139
I251
I18
I60
I41
I12
I36
I32
I23
I107
I42
I51
I53
I84
I215
I39
I139
I257
I283
I496
I35
I38
I239
I293
I18
I1861
I537
I172
I93
I459
I160
I80
I354
I337
I247
I56
I42
I19
I93
I167
I52
I45
I41
I131
I49
I97
I123
I20
I36
I433
I116
I40
I24
I19
I67
I52
I21
I41
I94
I28
I25
I149
I85
I82
I150
I205
I71
I205
I88
I250
I102
I663
I266
I312
I279
I338
I17
I1491
I213
I165
I1883
I803
tp138
a(I18216
I500
I435
I44
I427
I319
I636
I157
I374
I477
I54
I213
I75
I39
I79
I40
I496
I59
I92
I36
I18
I84
I314
I288
I46
I27
I88
I26
I238
I74
I37
I239
I183
I109
I159
I39
I25
I76
I219
I34
I116
I5
I7
I47
I38
I109
I167
I54
I333
I22
I22
I150
I476
I113
I38
I430
I306
I61
I45
I72
I40
I163
I37
I348
I303
I147
I212
I81
I118
I118
I65
I29
I160
I123
I198
I359
I23
I40
I44
I255
I410
I349
I104
I45
I105
I489
I29
I57
I520
I233
I558
I526
I1233
I19
I392
I309
I193
I323
I79
I70
tp139
a(I18215
I132
I204
I50
I86
I56
I49
I28
I40
I42
I35
I57
I80
I49
I97
I108
I63
I59
I27
I46
I52
I55
I52
I12
I28
I55
I95
I49
I201
I217
I70
I17
I17
I89
I132
I97
I79
I66
I452
I290
I357
I60
I629
I50
I13
I11
I10
I298
I23
I275
I309
I90
I327
I824
I23
I891
I41
I30
I10
I139
I316
I122
I387
I136
I25
I17
I51
I152
I357
I56
I52
I49
I144
I58
I27
I106
I31
I127
I121
I136
I78
I177
I61
I54
I66
I206
I86
I64
I53
I183
I289
I64
I484
I224
I133
I45
I1042
I4020
I237
I514
tp140
a(I18215
I66
I64
I105
I159
I157
I6
I33
I95
I26
I50
I303
I107
I28
I223
I64
I62
I27
I68
I30
I25
I54
I54
I31
I164
I42
I138
I86
I153
I208
I56
I80
I34
I54
I306
I108
I38
I41
I103
I118
I1536
I52
I20
I548
I27
I389
I214
I5
I893
I309
I107
I42
I89
I134
I30
I228
I8
I141
I82
I135
I138
I387
I43
I49
I194
I269
I14
I51
I564
I35
I23
I36
I98
I28
I41
I148
I85
I19
I67
I33
I154
I267
I180
I106
I108
I187
I31
I104
I234
I328
I532
I244
I390
I141
I485
I901
I13
I924
I1696
I491
tp141
a(I18222
I109
I360
I136
I59
I43
I119
I182
I80
I157
I17
I39
I17
I46
I23
I178
I85
I117
I33
I48
I110
I67
I396
I63
I28
I33
I80
I79
I167
I78
I111
I27
I261
I1193
I398
I149
I21
I46
I15
I258
I28
I501
I415
I102
I789
I446
I7
I206
I19
I6
I8
I297
I133
I161
I111
I93
I35
I53
I69
I25
I52
I52
I77
I56
I40
I54
I41
I264
I65
I32
I23
I135
I69
I15
I44
I55
I67
I28
I198
I123
I200
I60
I22
I29
I38
I52
I35
I112
I231
I76
I986
I122
I494
I287
I1321
I906
I100
I2472
I125
I296
tp142
a(I18215
I221
I458
I462
I374
I135
I71
I124
I181
I1001
I96
I173
I25
I70
I210
I174
I579
I73
I157
I153
I42
I48
I251
I169
I652
I162
I23
I52
I46
I64
I18
I45
I42
I19
I43
I28
I53
I77
I144
I54
I40
I54
I79
I48
I89
I195
I9
I15
I55
I273
I10
I336
I32
I21
I7
I13
I13
I37
I226
I1017
I44
I49
I276
I352
I303
I405
I201
I80
I109
I11
I119
I11
I187
I49
I317
I58
I15
I241
I42
I66
I43
I139
I269
I158
I139
I50
I243
I29
I49
I45
I55
I77
I83
I168
I46
I185
I530
I559
I1650
I1603
tp143
a(I18215
I392
I50
I769
I301
I42
I376
I231
I225
I30
I585
I287
I323
I138
I189
I109
I98
I104
I27
I209
I167
I149
I66
I174
I67
I236
I55
I31
I44
I50
I108
I130
I20
I118
I42
I38
I79
I87
I14
I149
I97
I24
I198
I68
I47
I26
I87
I703
I198
I26
I15
I225
I114
I130
I172
I459
I77
I71
I214
I32
I23
I212
I6
I6
I347
I194
I32
I110
I19
I84
I165
I294
I126
I73
I25
I56
I55
I170
I66
I246
I32
I125
I129
I14
I59
I246
I237
I158
I85
I51
I131
I54
I285
I106
I299
I265
I466
I1245
I2415
I390
tp144
a(I18215
I475
I501
I50
I96
I89
I54
I326
I214
I33
I24
I219
I96
I535
I97
I48
I466
I45
I310
I40
I22
I46
I87
I60
I107
I60
I72
I157
I25
I230
I48
I43
I111
I92
I71
I108
I87
I65
I61
I87
I119
I89
I48
I58
I47
I45
I21
I58
I52
I71
I69
I206
I303
I9
I340
I83
I42
I388
I7
I139
I150
I185
I182
I486
I6
I18
I374
I7
I68
I618
I159
I34
I132
I133
I53
I82
I100
I19
I104
I89
I33
I345
I150
I100
I30
I211
I86
I201
I30
I76
I79
I129
I82
I84
I512
I129
I124
I481
I26
I4935
tp145
a(I18216
I281
I30
I417
I298
I565
I42
I20
I36
I281
I412
I133
I262
I10
I351
I96
I62
I566
I85
I64
I75
I561
I108
I107
I219
I35
I205
I32
I66
I173
I63
I44
I82
I126
I139
I34
I40
I19
I7
I36
I185
I6
I15
I5
I215
I9
I8
I484
I1107
I137
I369
I106
I322
I8
I291
I505
I102
I299
I16
I84
I153
I31
I50
I143
I113
I90
I82
I175
I84
I158
I36
I42
I17
I31
I28
I140
I18
I21
I256
I104
I152
I296
I70
I33
I85
I29
I57
I60
I212
I195
I162
I125
I203
I355
I164
I80
I3201
I4
I252
I430
tp146
a(I18224
I35
I73
I31
I89
I35
I20
I20
I41
I92
I93
I60
I29
I100
I28
I95
I20
I28
I21
I17
I13
I36
I69
I32
I30
I78
I67
I91
I42
I94
I42
I264
I100
I98
I82
I157
I86
I78
I78
I25
I1693
I443
I125
I119
I1257
I169
I297
I219
I278
I104
I641
I8
I158
I160
I46
I49
I55
I22
I12
I210
I96
I198
I52
I69
I320
I35
I60
I78
I31
I92
I23
I112
I47
I217
I44
I160
I64
I152
I157
I159
I182
I69
I246
I229
I127
I89
I28
I36
I733
I19
I280
I120
I123
I95
I58
I538
I187
I157
I2699
I1649
tp147
a(I18215
I179
I158
I52
I86
I200
I48
I27
I110
I50
I15
I121
I663
I296
I36
I36
I148
I312
I133
I134
I41
I60
I65
I365
I29
I138
I196
I18
I31
I237
I170
I45
I155
I37
I311
I65
I17
I84
I140
I41
I7
I479
I22
I43
I28
I13
I174
I36
I77
I117
I342
I144
I239
I317
I257
I25
I366
I91
I114
I58
I113
I447
I151
I60
I41
I488
I198
I213
I110
I28
I103
I95
I55
I65
I313
I47
I162
I181
I211
I195
I53
I56
I64
I40
I75
I177
I64
I127
I697
I161
I759
I443
I987
I22
I682
I1720
I118
I445
I366
I63
tp148
a(I18235
I750
I747
I42
I594
I467
I134
I36
I71
I108
I294
I251
I65
I50
I329
I19
I164
I200
I95
I48
I109
I92
I90
I590
I80
I25
I100
I559
I61
I135
I51
I38
I63
I107
I35
I42
I33
I33
I114
I76
I49
I19
I25
I19
I35
I37
I27
I51
I77
I4
I477
I71
I235
I415
I22
I38
I10
I578
I645
I493
I13
I692
I45
I63
I224
I83
I37
I46
I8
I33
I46
I47
I93
I95
I26
I14
I54
I145
I95
I25
I59
I165
I28
I58
I54
I83
I75
I61
I52
I103
I125
I48
I86
I290
I294
I287
I1985
I1561
I498
I353
tp149
a(I18215
I40
I51
I75
I38
I18
I42
I24
I12
I15
I40
I34
I137
I36
I23
I10
I64
I102
I398
I18
I34
I33
I168
I16
I145
I90
I282
I134
I99
I139
I82
I313
I51
I17
I50
I595
I857
I104
I186
I258
I448
I827
I25
I56
I108
I1612
I27
I297
I16
I15
I53
I171
I222
I172
I273
I61
I126
I74
I168
I85
I30
I108
I102
I53
I12
I10
I521
I17
I227
I181
I72
I26
I43
I20
I198
I98
I161
I76
I102
I242
I85
I131
I23
I35
I67
I285
I31
I95
I109
I161
I171
I32
I247
I1262
I1500
I236
I40
I974
I715
I229
tp150
a(I18218
I301
I193
I332
I280
I43
I85
I25
I34
I125
I189
I125
I185
I69
I51
I117
I36
I53
I85
I57
I156
I247
I16
I105
I13
I76
I60
I83
I78
I604
I46
I101
I22
I146
I109
I126
I235
I32
I47
I9
I14
I19
I6
I284
I697
I512
I37
I4
I101
I1167
I9
I812
I8
I40
I10
I220
I41
I154
I403
I12
I105
I76
I81
I58
I129
I327
I185
I118
I73
I25
I131
I18
I130
I202
I30
I54
I56
I41
I77
I58
I17
I62
I88
I49
I234
I29
I285
I228
I46
I41
I80
I239
I234
I70
I139
I853
I350
I1023
I1847
I1256
tp151
a(I18215
I362
I218
I514
I335
I314
I51
I141
I83
I103
I429
I24
I189
I160
I321
I215
I81
I77
I1135
I150
I13
I109
I12
I31
I283
I50
I107
I82
I45
I86
I136
I56
I29
I24
I84
I26
I29
I30
I41
I390
I7
I24
I15
I18
I70
I14
I4
I25
I314
I11
I605
I1696
I106
I7
I339
I179
I245
I19
I129
I45
I44
I51
I339
I58
I62
I19
I70
I145
I137
I76
I19
I28
I24
I70
I79
I43
I253
I49
I23
I64
I36
I52
I129
I116
I16
I122
I61
I104
I62
I140
I189
I37
I1022
I2551
I840
I98
I427
I16
I226
I59
tp152
a(I18220
I51
I42
I37
I35
I73
I80
I11
I11
I267
I145
I31
I108
I38
I234
I29
I10
I43
I49
I44
I238
I19
I42
I17
I126
I23
I68
I188
I88
I72
I460
I2015
I223
I119
I1322
I54
I835
I114
I24
I71
I34
I139
I84
I237
I131
I63
I6
I83
I223
I188
I120
I15
I80
I98
I12
I64
I58
I50
I27
I33
I20
I49
I9
I24
I17
I21
I38
I59
I10
I252
I350
I116
I56
I13
I120
I94
I38
I45
I56
I144
I34
I181
I104
I55
I184
I70
I61
I120
I187
I325
I145
I200
I363
I435
I1122
I1540
I23
I1722
I657
I128
tp153
a(I18215
I91
I68
I163
I78
I45
I74
I30
I68
I33
I21
I28
I310
I390
I120
I36
I47
I56
I25
I27
I33
I21
I25
I58
I36
I185
I69
I57
I286
I83
I35
I241
I248
I436
I106
I29
I107
I27
I52
I28
I28
I50
I95
I517
I325
I128
I360
I334
I186
I504
I644
I145
I55
I181
I33
I194
I7
I247
I93
I52
I27
I251
I143
I145
I188
I51
I10
I244
I497
I64
I44
I209
I41
I332
I36
I32
I75
I38
I180
I24
I32
I34
I48
I56
I222
I186
I182
I76
I26
I103
I58
I56
I60
I61
I2482
I1527
I22
I1234
I879
I368
tp154
a(I18217
I54
I205
I236
I21
I15
I37
I103
I76
I62
I25
I29
I29
I126
I37
I40
I69
I116
I52
I160
I65
I11
I42
I98
I136
I14
I193
I149
I33
I22
I31
I326
I420
I903
I861
I117
I669
I12
I76
I82
I1078
I58
I110
I8
I10
I55
I208
I79
I5
I124
I4
I6
I766
I435
I32
I157
I84
I19
I31
I33
I121
I123
I158
I25
I102
I17
I23
I102
I39
I99
I16
I147
I57
I23
I65
I91
I43
I20
I54
I77
I37
I29
I39
I48
I205
I31
I1065
I106
I160
I114
I38
I95
I291
I82
I1319
I653
I240
I235
I1660
I1488
tp155
a(I18227
I1107
I120
I45
I125
I21
I98
I96
I190
I67
I16
I35
I315
I59
I85
I27
I32
I61
I281
I14
I85
I107
I29
I143
I15
I78
I56
I397
I293
I126
I77
I21
I141
I38
I51
I88
I15
I90
I839
I244
I14
I755
I75
I4
I667
I6
I6
I56
I6
I6
I13
I453
I568
I11
I347
I51
I64
I182
I9
I182
I340
I66
I33
I136
I76
I108
I65
I184
I19
I49
I99
I58
I113
I161
I47
I19
I29
I21
I13
I68
I42
I37
I61
I31
I150
I3
I110
I230
I48
I183
I110
I63
I445
I296
I151
I164
I300
I4344
I702
I5
tp156
a(I18218
I1640
I446
I333
I150
I459
I75
I84
I165
I178
I281
I107
I164
I798
I81
I32
I57
I72
I99
I24
I23
I500
I11
I461
I160
I23
I82
I34
I42
I80
I21
I64
I53
I205
I71
I27
I63
I69
I193
I7
I81
I8
I63
I425
I4
I15
I17
I22
I423
I46
I49
I323
I313
I346
I5
I72
I371
I248
I110
I287
I101
I49
I148
I66
I10
I133
I230
I23
I75
I51
I236
I86
I26
I46
I158
I126
I162
I132
I88
I96
I24
I114
I72
I142
I123
I435
I94
I58
I125
I71
I207
I355
I147
I110
I1289
I338
I653
I26
I1062
I241
tp157
a(I18221
I49
I52
I412
I285
I186
I67
I16
I289
I276
I1321
I60
I26
I76
I52
I459
I194
I78
I36
I31
I204
I19
I69
I48
I16
I164
I366
I50
I151
I142
I156
I94
I18
I145
I91
I106
I39
I61
I55
I215
I26
I109
I49
I6
I112
I260
I36
I1243
I729
I196
I21
I296
I677
I85
I44
I143
I8
I328
I153
I54
I171
I29
I103
I12
I96
I33
I224
I121
I147
I16
I403
I24
I60
I126
I28
I38
I72
I120
I185
I48
I68
I233
I272
I89
I44
I55
I100
I173
I8
I139
I130
I487
I69
I306
I279
I2121
I367
I634
I3
I5
tp158
a(I18215
I365
I341
I246
I42
I186
I65
I47
I371
I472
I42
I135
I34
I51
I900
I73
I57
I11
I271
I19
I179
I172
I30
I728
I221
I23
I15
I47
I18
I117
I54
I109
I172
I145
I21
I21
I149
I43
I40
I210
I97
I59
I52
I156
I148
I227
I205
I14
I463
I72
I71
I6
I91
I50
I255
I75
I250
I450
I9
I216
I125
I41
I96
I62
I12
I17
I64
I94
I137
I75
I119
I58
I167
I77
I14
I32
I107
I320
I100
I33
I30
I35
I34
I151
I37
I186
I162
I43
I63
I104
I467
I520
I68
I698
I2353
I809
I925
I177
I203
I370
tp159
a(I18215
I280
I384
I285
I151
I78
I265
I82
I121
I344
I79
I94
I22
I149
I219
I943
I112
I209
I41
I188
I199
I114
I182
I101
I87
I19
I24
I55
I35
I300
I39
I32
I65
I38
I113
I75
I217
I11
I61
I137
I91
I82
I82
I149
I6
I85
I149
I107
I190
I168
I226
I306
I230
I349
I30
I410
I615
I93
I22
I35
I248
I48
I93
I7
I66
I77
I152
I9
I149
I132
I76
I83
I162
I105
I160
I51
I51
I46
I99
I49
I90
I35
I34
I368
I115
I839
I67
I119
I136
I88
I818
I223
I274
I158
I417
I739
I970
I1068
I140
I457
tp160
a(I18215
I191
I52
I286
I80
I134
I88
I39
I22
I109
I118
I634
I870
I39
I111
I30
I118
I140
I204
I148
I59
I149
I113
I10
I194
I25
I58
I479
I25
I31
I39
I92
I55
I40
I31
I56
I25
I62
I68
I10
I15
I594
I181
I49
I106
I28
I29
I337
I100
I629
I20
I12
I479
I806
I259
I66
I93
I78
I102
I52
I215
I375
I7
I340
I239
I266
I65
I69
I149
I224
I240
I51
I34
I66
I72
I259
I62
I140
I156
I27
I89
I31
I209
I188
I79
I7
I200
I166
I126
I58
I31
I404
I152
I1050
I2919
I31
I116
I9
I397
I6
tp161
a(I18215
I700
I385
I253
I34
I16
I16
I33
I341
I138
I292
I121
I215
I532
I114
I66
I49
I74
I180
I46
I334
I22
I310
I61
I302
I43
I47
I186
I63
I269
I19
I159
I226
I85
I30
I235
I50
I150
I214
I72
I32
I20
I14
I230
I297
I427
I120
I37
I192
I152
I483
I153
I46
I9
I548
I91
I4
I315
I11
I269
I19
I169
I17
I304
I27
I109
I72
I158
I9
I132
I96
I17
I18
I154
I87
I55
I34
I56
I237
I67
I32
I55
I42
I228
I55
I336
I103
I46
I212
I69
I320
I290
I26
I29
I46
I190
I3990
I11
I149
I395
tp162
a(I18215
I83
I428
I385
I282
I490
I40
I325
I357
I74
I223
I293
I127
I43
I213
I1620
I77
I284
I91
I28
I53
I149
I23
I24
I9
I23
I98
I87
I56
I51
I110
I233
I65
I27
I69
I24
I58
I59
I34
I25
I66
I9
I22
I85
I25
I17
I79
I23
I4
I172
I4
I19
I45
I210
I17
I115
I650
I82
I6
I225
I153
I37
I446
I422
I388
I532
I115
I697
I13
I74
I128
I95
I146
I128
I41
I194
I150
I39
I29
I58
I239
I48
I33
I149
I17
I67
I46
I75
I51
I47
I397
I7
I66
I85
I885
I971
I1196
I1146
I136
I232
tp163
a(I18215
I33
I158
I164
I83
I63
I18
I53
I182
I100
I118
I65
I42
I71
I57
I189
I173
I279
I32
I63
I60
I104
I50
I35
I56
I144
I146
I68
I21
I36
I122
I68
I45
I120
I68
I92
I41
I116
I233
I138
I30
I320
I43
I788
I223
I40
I561
I839
I558
I468
I175
I17
I689
I98
I43
I122
I187
I74
I111
I196
I175
I168
I57
I146
I22
I49
I122
I38
I51
I96
I221
I22
I22
I117
I24
I27
I248
I237
I51
I73
I182
I145
I117
I73
I75
I129
I49
I189
I183
I340
I626
I208
I390
I274
I204
I967
I973
I11
I1878
I126
tp164
a(I18215
I300
I425
I270
I26
I208
I14
I307
I61
I581
I27
I48
I37
I369
I20
I80
I77
I166
I29
I17
I54
I203
I23
I200
I53
I19
I164
I44
I268
I203
I93
I62
I60
I76
I22
I27
I780
I108
I35
I13
I370
I304
I7
I135
I44
I530
I6
I354
I21
I217
I59
I108
I364
I394
I18
I171
I92
I172
I126
I28
I80
I59
I253
I12
I128
I92
I78
I74
I38
I65
I100
I79
I42
I54
I49
I16
I31
I33
I17
I460
I55
I231
I150
I70
I29
I60
I48
I53
I248
I164
I26
I60
I86
I1283
I1419
I840
I1310
I27
I985
I400
tp165
a(I18216
I375
I63
I208
I184
I49
I167
I354
I40
I40
I78
I116
I105
I66
I67
I20
I378
I72
I49
I11
I23
I542
I45
I126
I21
I167
I51
I32
I55
I103
I58
I27
I88
I96
I44
I71
I139
I181
I43
I143
I255
I65
I72
I38
I4
I9
I621
I689
I76
I58
I522
I23
I6
I8
I357
I573
I110
I284
I89
I119
I94
I39
I128
I165
I35
I124
I161
I152
I126
I135
I41
I65
I69
I76
I21
I89
I28
I76
I58
I61
I188
I26
I85
I296
I239
I33
I192
I69
I90
I124
I59
I168
I202
I228
I311
I364
I36
I140
I262
I5062
tp166
a(I18215
I121
I147
I84
I80
I259
I31
I15
I18
I31
I71
I22
I80
I341
I153
I16
I125
I29
I30
I91
I111
I109
I52
I72
I137
I126
I109
I148
I69
I79
I524
I72
I25
I748
I80
I115
I409
I1190
I96
I686
I80
I312
I401
I25
I112
I4
I228
I180
I112
I181
I63
I189
I9
I345
I142
I38
I28
I100
I42
I54
I54
I51
I29
I443
I39
I198
I79
I103
I66
I69
I33
I47
I127
I194
I47
I35
I30
I50
I27
I50
I19
I67
I190
I36
I198
I58
I53
I54
I151
I562
I34
I127
I219
I127
I4
I301
I453
I1019
I2056
I1548
tp167
a(I18218
I400
I365
I34
I338
I29
I618
I267
I57
I19
I46
I25
I130
I196
I42
I23
I80
I599
I47
I39
I56
I170
I22
I458
I47
I233
I40
I53
I68
I24
I83
I62
I333
I274
I92
I25
I97
I85
I71
I15
I35
I81
I55
I87
I48
I280
I141
I262
I8
I280
I40
I149
I144
I366
I332
I15
I392
I845
I248
I91
I301
I17
I14
I136
I340
I42
I18
I532
I492
I99
I167
I8
I17
I95
I79
I67
I153
I53
I90
I139
I542
I64
I174
I175
I168
I226
I28
I32
I283
I110
I467
I417
I781
I661
I477
I511
I104
I366
I159
I225
tp168
a(I18215
I359
I22
I386
I35
I96
I113
I172
I196
I77
I92
I17
I52
I44
I63
I140
I73
I744
I114
I192
I946
I48
I98
I30
I31
I80
I44
I24
I109
I176
I25
I142
I67
I33
I55
I8
I49
I22
I30
I34
I48
I12
I20
I106
I12
I23
I261
I32
I342
I302
I595
I144
I338
I626
I140
I70
I6
I822
I281
I15
I6
I519
I163
I239
I9
I95
I116
I106
I67
I23
I69
I16
I88
I147
I376
I66
I163
I49
I39
I63
I108
I331
I132
I81
I27
I428
I176
I60
I40
I38
I121
I131
I127
I229
I20
I341
I56
I3723
I166
I406
tp169
a(I18215
I48
I1141
I34
I514
I53
I610
I47
I81
I100
I638
I34
I20
I73
I124
I979
I114
I580
I54
I218
I23
I18
I76
I33
I115
I164
I26
I230
I92
I43
I147
I42
I97
I64
I44
I59
I57
I49
I31
I24
I8
I68
I18
I6
I10
I130
I8
I16
I61
I73
I246
I18
I561
I4
I282
I25
I4
I538
I731
I687
I20
I215
I155
I4
I38
I22
I5
I46
I156
I29
I26
I263
I112
I94
I103
I175
I94
I174
I20
I35
I35
I64
I24
I55
I123
I43
I47
I40
I250
I188
I31
I210
I179
I42
I440
I71
I457
I1340
I2166
I412
tp170
a(I18215
I298
I178
I210
I43
I66
I69
I27
I61
I81
I147
I83
I38
I16
I240
I119
I69
I237
I50
I63
I113
I36
I57
I24
I195
I26
I43
I194
I31
I69
I133
I371
I152
I276
I219
I50
I15
I208
I309
I12
I248
I700
I605
I8
I136
I291
I98
I513
I130
I92
I48
I78
I49
I108
I11
I144
I36
I341
I29
I137
I365
I45
I178
I91
I162
I63
I43
I100
I62
I142
I30
I294
I40
I72
I53
I19
I62
I179
I64
I332
I86
I31
I122
I113
I192
I124
I348
I45
I86
I194
I97
I286
I321
I594
I69
I729
I2246
I1428
I332
I124
tp171
a(I18227
I72
I54
I57
I393
I67
I42
I34
I65
I108
I106
I28
I79
I96
I48
I85
I240
I84
I115
I69
I45
I317
I71
I29
I47
I77
I90
I243
I39
I39
I48
I167
I64
I38
I390
I40
I460
I128
I56
I581
I526
I38
I166
I470
I8
I70
I29
I130
I175
I140
I638
I103
I13
I62
I6
I116
I569
I154
I315
I55
I177
I617
I42
I172
I41
I131
I107
I150
I22
I40
I29
I20
I59
I38
I69
I81
I50
I32
I18
I186
I145
I33
I240
I263
I270
I132
I65
I163
I54
I55
I55
I22
I149
I505
I206
I15
I279
I330
I2392
I2333
tp172
a(I18226
I52
I53
I35
I86
I123
I67
I26
I86
I10
I80
I139
I48
I46
I69
I160
I33
I114
I277
I15
I130
I89
I200
I181
I89
I80
I98
I129
I54
I54
I107
I26
I38
I253
I121
I254
I599
I9
I391
I71
I1468
I24
I8
I120
I40
I20
I546
I9
I643
I814
I34
I107
I75
I99
I6
I76
I83
I117
I11
I103
I10
I143
I71
I314
I95
I161
I44
I25
I43
I35
I133
I26
I39
I85
I92
I26
I92
I29
I307
I163
I97
I261
I104
I384
I80
I84
I200
I34
I105
I110
I360
I48
I146
I640
I357
I554
I513
I2210
I133
I1134
tp173
a(I18238
I331
I318
I30
I369
I336
I54
I135
I409
I12
I40
I61
I302
I71
I43
I112
I38
I168
I51
I25
I124
I57
I56
I175
I57
I17
I48
I399
I58
I31
I28
I39
I216
I313
I31
I176
I309
I25
I92
I35
I121
I70
I17
I100
I41
I24
I9
I273
I19
I142
I130
I256
I62
I12
I260
I311
I6
I979
I637
I299
I276
I496
I138
I277
I162
I221
I142
I144
I121
I74
I98
I51
I56
I82
I61
I119
I20
I105
I221
I45
I34
I156
I28
I48
I26
I190
I31
I158
I71
I604
I269
I74
I708
I1485
I193
I1041
I264
I652
I28
I442
tp174
a(I18222
I24
I26
I35
I73
I106
I65
I128
I89
I59
I39
I21
I136
I19
I19
I107
I96
I61
I16
I127
I55
I20
I32
I205
I16
I111
I67
I21
I202
I83
I26
I98
I71
I42
I24
I43
I138
I34
I99
I129
I33
I35
I119
I170
I280
I87
I359
I1024
I1585
I1281
I27
I425
I4
I597
I97
I140
I165
I43
I167
I71
I55
I30
I46
I743
I47
I91
I20
I34
I43
I109
I163
I30
I35
I49
I72
I20
I31
I35
I26
I56
I59
I325
I32
I247
I257
I142
I51
I176
I214
I290
I331
I67
I195
I143
I80
I1368
I2037
I10
I8
I1148
tp175
a(I18215
I449
I442
I442
I557
I50
I114
I107
I453
I346
I32
I68
I87
I42
I140
I148
I40
I36
I24
I53
I18
I23
I384
I44
I207
I26
I62
I326
I56
I114
I170
I216
I38
I47
I77
I26
I17
I422
I64
I39
I191
I96
I131
I42
I209
I7
I151
I98
I26
I34
I10
I125
I19
I159
I63
I941
I424
I341
I488
I126
I157
I14
I182
I266
I150
I121
I208
I138
I14
I150
I20
I81
I141
I138
I28
I87
I45
I169
I77
I33
I41
I122
I41
I24
I18
I24
I157
I101
I111
I111
I109
I62
I332
I31
I249
I15
I113
I4256
I332
I238
tp176
a(I18217
I135
I109
I20
I293
I142
I22
I67
I131
I13
I235
I10
I11
I422
I229
I13
I16
I48
I51
I93
I126
I35
I59
I40
I23
I30
I62
I84
I160
I8
I55
I62
I142
I141
I37
I32
I63
I620
I305
I76
I773
I257
I110
I6
I169
I29
I358
I76
I96
I317
I54
I23
I161
I110
I44
I65
I348
I313
I189
I119
I217
I182
I33
I139
I227
I47
I110
I62
I55
I28
I110
I9
I81
I293
I117
I202
I179
I155
I44
I45
I38
I92
I220
I25
I23
I117
I127
I75
I57
I678
I37
I582
I306
I203
I445
I882
I802
I1437
I1487
I586
tp177
a(I18215
I174
I185
I65
I146
I130
I128
I82
I117
I1814
I103
I53
I391
I74
I22
I230
I90
I191
I516
I108
I57
I180
I45
I101
I39
I29
I19
I24
I14
I27
I68
I50
I63
I204
I51
I64
I22
I184
I24
I32
I162
I249
I27
I61
I44
I171
I87
I252
I238
I87
I218
I189
I385
I30
I46
I259
I92
I84
I114
I151
I298
I72
I149
I141
I39
I69
I127
I84
I75
I74
I49
I115
I120
I164
I35
I296
I268
I282
I115
I348
I236
I245
I34
I263
I59
I37
I73
I57
I121
I97
I370
I197
I565
I63
I1022
I1213
I175
I353
I1002
I429
tp178
a(I18215
I365
I188
I417
I27
I183
I171
I15
I214
I20
I325
I452
I20
I254
I638
I166
I86
I192
I310
I128
I258
I271
I30
I22
I78
I47
I408
I45
I46
I137
I88
I252
I117
I289
I112
I87
I50
I129
I108
I180
I98
I118
I514
I204
I9
I143
I218
I22
I169
I14
I60
I381
I42
I10
I200
I389
I17
I249
I237
I238
I157
I47
I112
I53
I34
I133
I6
I192
I60
I68
I169
I156
I36
I31
I90
I35
I34
I65
I56
I139
I48
I110
I35
I108
I52
I124
I211
I73
I115
I223
I138
I205
I123
I37
I168
I191
I222
I1467
I2602
I211
tp179
a(I18219
I107
I212
I41
I105
I31
I22
I28
I222
I181
I76
I101
I15
I37
I431
I53
I55
I63
I957
I130
I26
I17
I77
I90
I41
I136
I355
I58
I11
I51
I27
I160
I176
I30
I43
I560
I14
I23
I273
I17
I309
I193
I252
I175
I239
I222
I45
I375
I100
I737
I61
I401
I12
I142
I4
I319
I158
I113
I243
I161
I70
I185
I88
I184
I190
I105
I157
I25
I39
I72
I84
I424
I30
I22
I67
I33
I22
I45
I106
I120
I58
I63
I20
I128
I143
I211
I221
I21
I197
I22
I159
I100
I421
I189
I527
I2224
I784
I895
I540
I85
tp180
a(I18215
I399
I450
I398
I352
I137
I262
I75
I67
I421
I24
I558
I329
I459
I40
I60
I228
I230
I39
I84
I204
I140
I51
I56
I53
I41
I19
I43
I10
I138
I90
I106
I19
I71
I39
I66
I88
I63
I69
I23
I14
I32
I39
I37
I223
I19
I4
I144
I21
I13
I380
I58
I33
I10
I165
I196
I424
I129
I315
I47
I208
I11
I4
I118
I52
I110
I17
I783
I921
I78
I16
I29
I65
I19
I98
I166
I223
I68
I49
I62
I46
I39
I74
I24
I41
I315
I38
I85
I263
I117
I77
I610
I175
I256
I232
I1066
I2095
I1002
I144
I293
tp181
a(I18215
I104
I220
I338
I629
I36
I41
I192
I33
I352
I128
I171
I182
I151
I629
I22
I134
I22
I44
I29
I40
I132
I29
I218
I126
I115
I22
I133
I181
I509
I138
I97
I80
I100
I72
I44
I42
I283
I120
I113
I221
I126
I82
I391
I224
I170
I56
I27
I316
I44
I125
I335
I150
I379
I48
I125
I579
I81
I195
I125
I72
I89
I397
I21
I24
I50
I24
I536
I45
I69
I110
I103
I15
I29
I25
I205
I97
I75
I60
I74
I144
I144
I129
I74
I100
I79
I118
I67
I628
I32
I242
I344
I327
I417
I351
I1436
I1233
I132
I385
I41
tp182
a(I18215
I208
I128
I181
I641
I119
I106
I32
I102
I62
I230
I27
I78
I146
I171
I350
I38
I49
I192
I32
I20
I123
I175
I145
I33
I24
I21
I66
I60
I45
I40
I91
I35
I35
I86
I337
I149
I35
I47
I251
I72
I79
I134
I78
I493
I331
I16
I35
I207
I32
I322
I139
I33
I197
I69
I296
I115
I120
I33
I90
I48
I59
I107
I22
I69
I598
I131
I149
I51
I123
I361
I157
I173
I65
I143
I63
I434
I9
I37
I33
I118
I27
I69
I93
I218
I56
I112
I42
I486
I61
I370
I48
I35
I647
I202
I30
I458
I3167
I871
I850
tp183
a(I18216
I203
I56
I302
I228
I27
I215
I23
I41
I32
I141
I57
I15
I127
I73
I173
I109
I56
I42
I65
I58
I29
I72
I62
I28
I47
I16
I73
I31
I159
I459
I40
I79
I92
I662
I30
I95
I91
I25
I51
I80
I36
I324
I351
I78
I33
I345
I351
I7
I626
I17
I8
I267
I40
I592
I131
I4
I295
I214
I23
I210
I50
I447
I403
I92
I26
I261
I492
I55
I76
I29
I68
I35
I324
I98
I178
I74
I34
I21
I65
I37
I125
I232
I110
I67
I406
I185
I99
I104
I175
I109
I50
I387
I643
I114
I982
I1061
I32
I606
I1824
tp184
a(I18220
I65
I78
I67
I129
I31
I122
I440
I46
I22
I18
I30
I55
I135
I110
I76
I60
I46
I171
I29
I20
I46
I33
I110
I230
I57
I106
I243
I275
I213
I410
I52
I166
I6
I294
I361
I1142
I86
I47
I305
I679
I334
I320
I569
I9
I452
I10
I310
I224
I133
I122
I289
I97
I111
I33
I151
I40
I97
I60
I22
I213
I70
I46
I103
I43
I159
I40
I38
I58
I111
I22
I37
I9
I61
I133
I50
I89
I333
I7
I22
I134
I358
I149
I34
I36
I44
I53
I59
I87
I572
I21
I231
I175
I136
I573
I395
I1725
I1460
I282
I226
tp185
a(I18223
I47
I49
I176
I164
I45
I53
I128
I68
I53
I208
I16
I178
I45
I17
I377
I60
I310
I60
I147
I28
I145
I94
I82
I35
I84
I117
I171
I133
I74
I105
I30
I89
I79
I21
I33
I35
I533
I59
I382
I117
I1395
I957
I165
I68
I133
I80
I124
I337
I215
I140
I151
I100
I120
I49
I53
I208
I161
I112
I76
I54
I56
I391
I23
I33
I15
I135
I78
I44
I13
I121
I78
I27
I24
I156
I14
I27
I174
I68
I124
I104
I190
I34
I83
I230
I153
I191
I201
I95
I168
I185
I125
I300
I493
I197
I555
I800
I1392
I1464
I479
tp186
a(I18215
I223
I223
I96
I94
I34
I100
I25
I134
I93
I28
I14
I28
I93
I19
I43
I57
I35
I39
I26
I65
I40
I16
I135
I82
I98
I21
I117
I308
I45
I380
I59
I50
I610
I747
I236
I608
I595
I30
I12
I202
I313
I255
I129
I285
I40
I274
I84
I194
I66
I284
I18
I102
I6
I41
I303
I135
I19
I73
I248
I178
I82
I54
I35
I26
I27
I24
I41
I27
I33
I45
I64
I83
I201
I99
I102
I48
I37
I47
I26
I33
I158
I276
I320
I86
I61
I24
I37
I119
I83
I76
I50
I54
I351
I70
I568
I929
I1113
I2584
I1393
tp187
a(I18215
I86
I313
I454
I375
I61
I115
I20
I321
I105
I30
I28
I52
I120
I135
I290
I338
I36
I18
I44
I19
I289
I85
I724
I293
I116
I79
I339
I218
I43
I21
I40
I44
I73
I35
I74
I8
I104
I68
I50
I135
I54
I202
I97
I43
I49
I494
I45
I701
I7
I545
I86
I46
I30
I42
I564
I40
I261
I168
I40
I70
I139
I83
I224
I352
I35
I33
I102
I277
I163
I10
I272
I116
I58
I127
I46
I44
I52
I44
I121
I225
I21
I40
I79
I100
I89
I112
I74
I40
I184
I595
I146
I29
I204
I43
I566
I1263
I1763
I940
I200
tp188
a(I18228
I50
I313
I363
I155
I27
I24
I99
I24
I176
I33
I479
I133
I43
I822
I30
I285
I49
I256
I61
I131
I19
I58
I77
I56
I101
I153
I43
I83
I90
I77
I41
I87
I61
I54
I82
I173
I12
I10
I143
I201
I299
I104
I14
I116
I111
I19
I85
I607
I81
I98
I612
I42
I307
I45
I158
I700
I9
I121
I38
I46
I146
I63
I185
I335
I198
I35
I323
I143
I27
I37
I162
I78
I44
I192
I23
I63
I60
I69
I82
I170
I73
I91
I25
I117
I266
I51
I186
I82
I159
I81
I62
I34
I115
I738
I27
I1240
I2381
I1224
I207
tp189
a(I18215
I33
I520
I998
I503
I97
I144
I79
I162
I6
I314
I115
I128
I64
I126
I77
I19
I57
I237
I340
I1147
I77
I22
I36
I697
I137
I94
I32
I225
I177
I51
I101
I166
I85
I42
I12
I34
I23
I64
I12
I84
I24
I219
I16
I338
I21
I69
I27
I154
I223
I18
I46
I111
I12
I58
I207
I469
I458
I528
I12
I43
I207
I10
I100
I612
I56
I6
I60
I83
I85
I73
I193
I100
I273
I70
I194
I174
I39
I172
I53
I43
I410
I33
I190
I25
I101
I58
I75
I146
I191
I181
I70
I207
I85
I382
I231
I997
I1425
I192
I401
tp190
a(I18215
I1588
I75
I185
I386
I245
I33
I479
I86
I304
I78
I60
I670
I270
I317
I39
I27
I17
I21
I402
I29
I327
I29
I20
I183
I78
I91
I37
I100
I53
I34
I223
I154
I94
I63
I200
I8
I70
I148
I54
I8
I161
I142
I32
I6
I366
I241
I20
I10
I209
I37
I479
I84
I253
I254
I64
I70
I215
I151
I181
I122
I105
I435
I196
I17
I202
I98
I84
I83
I87
I92
I169
I17
I41
I15
I31
I193
I3
I60
I88
I95
I61
I25
I202
I176
I59
I155
I70
I306
I112
I278
I87
I50
I662
I1022
I1735
I14
I34
I479
I373
tp191
a(I18215
I332
I325
I280
I357
I296
I26
I268
I30
I39
I141
I136
I537
I263
I20
I236
I74
I72
I15
I36
I187
I49
I70
I41
I337
I127
I20
I350
I104
I80
I11
I28
I11
I19
I6
I47
I9
I605
I9
I158
I48
I164
I144
I21
I143
I34
I145
I77
I492
I78
I205
I337
I123
I199
I11
I99
I206
I14
I166
I258
I41
I113
I103
I190
I238
I95
I229
I18
I224
I276
I15
I123
I41
I159
I29
I176
I86
I183
I34
I346
I83
I97
I197
I46
I54
I20
I72
I58
I48
I186
I205
I731
I214
I2064
I1072
I907
I346
I146
I36
I377
tp192
a(I18215
I106
I69
I113
I170
I131
I45
I94
I97
I146
I180
I11
I17
I243
I314
I98
I259
I27
I30
I148
I33
I11
I181
I70
I185
I357
I47
I40
I19
I84
I113
I557
I43
I331
I109
I382
I97
I27
I10
I1040
I16
I389
I636
I578
I9
I119
I90
I72
I1124
I129
I5
I97
I4
I47
I297
I119
I51
I86
I91
I27
I26
I160
I30
I110
I63
I167
I28
I37
I87
I22
I105
I38
I130
I52
I25
I74
I612
I49
I92
I33
I91
I20
I224
I92
I59
I114
I30
I99
I147
I352
I337
I965
I361
I22
I592
I366
I1463
I552
I149
I398
tp193
a(I18222
I123
I100
I29
I65
I119
I60
I20
I45
I158
I224
I97
I17
I187
I136
I94
I32
I98
I392
I25
I26
I36
I122
I183
I21
I90
I134
I14
I267
I89
I193
I93
I43
I240
I8
I184
I47
I175
I148
I622
I238
I151
I8
I525
I470
I117
I194
I850
I10
I10
I191
I553
I86
I13
I182
I161
I10
I29
I101
I200
I157
I115
I48
I164
I169
I38
I49
I39
I54
I59
I315
I119
I101
I210
I66
I41
I156
I445
I63
I165
I77
I52
I30
I80
I65
I68
I160
I471
I203
I125
I55
I77
I76
I330
I452
I137
I42
I1076
I2243
I1139
tp194
a(I18215
I36
I437
I729
I374
I226
I68
I1026
I89
I169
I425
I622
I86
I33
I708
I17
I61
I178
I55
I147
I67
I26
I26
I17
I519
I67
I51
I33
I246
I60
I112
I17
I57
I204
I11
I166
I47
I52
I56
I64
I132
I63
I39
I69
I237
I217
I135
I179
I9
I163
I260
I38
I458
I248
I174
I22
I28
I619
I190
I23
I105
I11
I62
I284
I11
I177
I252
I63
I86
I50
I148
I158
I100
I29
I36
I147
I22
I40
I73
I69
I39
I65
I235
I240
I225
I42
I43
I38
I157
I43
I356
I141
I24
I480
I47
I583
I2034
I664
I320
I7
tp195
a(I18215
I33
I85
I58
I115
I108
I17
I17
I69
I24
I43
I59
I58
I107
I77
I56
I98
I150
I84
I130
I97
I51
I176
I75
I153
I157
I28
I53
I76
I81
I125
I467
I165
I196
I603
I141
I76
I246
I1115
I566
I8
I170
I59
I80
I107
I71
I25
I509
I150
I323
I170
I28
I237
I84
I147
I134
I194
I110
I97
I94
I173
I50
I180
I89
I129
I155
I147
I80
I86
I30
I221
I82
I129
I66
I33
I207
I113
I72
I124
I50
I86
I50
I126
I60
I90
I137
I107
I98
I317
I326
I227
I36
I305
I505
I275
I673
I696
I358
I1864
I1009
tp196
a(I18215
I498
I473
I208
I217
I70
I130
I20
I41
I145
I27
I112
I295
I21
I114
I621
I83
I40
I225
I423
I118
I163
I42
I25
I93
I35
I33
I133
I29
I73
I61
I25
I236
I266
I92
I144
I240
I32
I33
I32
I126
I114
I33
I129
I44
I55
I14
I9
I444
I26
I65
I195
I122
I15
I154
I243
I34
I5
I9
I6
I32
I131
I322
I94
I149
I410
I841
I193
I203
I100
I85
I161
I28
I126
I462
I43
I55
I168
I196
I56
I41
I47
I177
I25
I85
I89
I61
I116
I72
I146
I90
I123
I37
I122
I157
I18
I228
I4942
I166
I286
tp197
a(I18215
I267
I316
I177
I637
I17
I466
I259
I27
I49
I32
I229
I110
I48
I85
I86
I21
I517
I171
I172
I620
I28
I19
I19
I147
I313
I161
I23
I83
I74
I270
I96
I89
I246
I39
I21
I228
I108
I168
I27
I132
I28
I76
I103
I239
I100
I106
I275
I470
I130
I151
I53
I112
I318
I50
I29
I139
I63
I312
I119
I56
I23
I31
I336
I82
I21
I221
I33
I111
I49
I51
I24
I140
I26
I56
I47
I65
I40
I247
I47
I112
I211
I36
I23
I113
I116
I152
I428
I44
I425
I325
I260
I248
I465
I1293
I850
I128
I1300
I612
I76
tp198
a(I18222
I93
I42
I95
I43
I22
I200
I155
I99
I75
I8
I142
I47
I114
I47
I792
I56
I49
I15
I32
I62
I54
I84
I336
I115
I186
I53
I47
I183
I59
I188
I38
I172
I275
I155
I171
I349
I193
I129
I427
I183
I311
I707
I424
I27
I397
I263
I211
I99
I146
I128
I593
I270
I322
I5
I58
I8
I102
I95
I34
I46
I28
I193
I170
I11
I60
I53
I24
I43
I20
I66
I17
I132
I54
I64
I41
I106
I24
I33
I23
I34
I191
I190
I59
I108
I38
I45
I669
I270
I105
I318
I500
I190
I25
I328
I936
I486
I2563
I334
I4
tp199
a(I18215
I134
I37
I42
I450
I263
I98
I39
I102
I232
I23
I35
I15
I576
I90
I47
I41
I107
I38
I45
I122
I151
I121
I30
I49
I267
I53
I186
I116
I83
I16
I147
I423
I118
I86
I20
I224
I61
I117
I461
I345
I119
I31
I352
I145
I359
I30
I69
I6
I350
I33
I309
I177
I12
I134
I15
I236
I434
I173
I215
I110
I147
I115
I342
I25
I55
I105
I141
I89
I130
I175
I54
I23
I40
I53
I78
I212
I39
I40
I262
I31
I283
I321
I34
I44
I29
I35
I101
I77
I45
I36
I47
I66
I53
I29
I108
I110
I174
I487
I5239
tp200
a(I18215
I193
I254
I118
I103
I10
I34
I20
I105
I18
I33
I20
I133
I167
I39
I43
I152
I125
I43
I60
I44
I38
I329
I93
I10
I46
I128
I9
I252
I23
I122
I25
I103
I210
I125
I287
I28
I85
I858
I44
I63
I34
I21
I93
I75
I703
I231
I1065
I5
I290
I349
I114
I300
I82
I613
I89
I165
I58
I27
I189
I33
I37
I82
I36
I51
I47
I43
I32
I135
I51
I109
I12
I41
I100
I248
I177
I49
I29
I284
I67
I26
I48
I73
I55
I108
I59
I132
I198
I305
I217
I129
I292
I280
I92
I379
I266
I502
I618
I2455
I1401
tp201
a(I18219
I81
I45
I22
I90
I30
I18
I51
I31
I77
I259
I21
I37
I112
I20
I47
I14
I26
I37
I90
I69
I58
I65
I214
I66
I70
I34
I131
I20
I202
I51
I109
I82
I226
I555
I156
I221
I393
I308
I1239
I208
I26
I624
I347
I157
I75
I178
I242
I478
I162
I46
I142
I108
I85
I145
I17
I269
I227
I10
I32
I228
I41
I34
I8
I136
I140
I116
I94
I45
I31
I182
I518
I39
I45
I67
I27
I38
I191
I69
I97
I32
I30
I36
I273
I83
I252
I58
I285
I206
I80
I56
I41
I166
I123
I790
I716
I708
I1439
I854
I1060
tp202
a(I18215
I269
I106
I33
I94
I222
I173
I243
I545
I552
I271
I33
I33
I363
I246
I164
I108
I59
I44
I29
I58
I59
I93
I166
I16
I180
I53
I120
I32
I77
I155
I25
I21
I56
I48
I50
I101
I41
I174
I28
I12
I13
I23
I87
I93
I7
I228
I58
I25
I67
I287
I43
I36
I268
I6
I239
I14
I353
I536
I15
I128
I182
I170
I85
I378
I212
I45
I279
I35
I193
I174
I164
I247
I132
I142
I260
I38
I239
I66
I52
I113
I76
I131
I40
I56
I207
I283
I62
I56
I142
I65
I70
I127
I1517
I419
I973
I566
I1230
I1327
I162
tp203
a(I18217
I160
I167
I333
I52
I81
I63
I53
I43
I111
I16
I24
I53
I57
I75
I179
I106
I154
I58
I260
I51
I167
I166
I143
I190
I167
I133
I50
I53
I674
I515
I464
I82
I187
I336
I125
I429
I107
I484
I757
I4
I38
I156
I153
I167
I21
I407
I4
I11
I189
I32
I60
I172
I58
I39
I131
I190
I6
I64
I111
I127
I162
I12
I43
I58
I141
I35
I22
I102
I42
I84
I465
I42
I34
I138
I22
I42
I106
I151
I35
I22
I32
I54
I60
I64
I37
I134
I539
I57
I116
I784
I211
I327
I433
I67
I1854
I13
I822
I1073
I491
tp204
a(I18215
I24
I114
I146
I60
I106
I314
I55
I181
I56
I44
I50
I106
I236
I27
I11
I179
I24
I173
I57
I20
I26
I86
I51
I42
I41
I121
I99
I90
I74
I192
I350
I195
I128
I20
I29
I37
I447
I1893
I84
I52
I138
I285
I86
I74
I77
I475
I402
I295
I326
I85
I189
I135
I20
I27
I257
I8
I112
I9
I109
I189
I19
I91
I75
I22
I25
I103
I67
I103
I19
I23
I169
I129
I26
I37
I18
I103
I354
I54
I59
I66
I28
I180
I49
I211
I90
I74
I179
I546
I161
I476
I765
I182
I32
I859
I1791
I1123
I142
I274
I331
tp205
a(I18219
I291
I367
I72
I279
I236
I53
I92
I57
I50
I202
I675
I33
I39
I25
I271
I232
I256
I43
I29
I49
I86
I34
I77
I104
I500
I35
I48
I62
I62
I162
I91
I88
I60
I31
I48
I192
I9
I331
I19
I40
I134
I52
I274
I405
I211
I215
I28
I174
I945
I6
I287
I199
I104
I121
I9
I317
I171
I110
I44
I77
I109
I34
I489
I108
I175
I100
I177
I42
I136
I27
I70
I32
I81
I89
I28
I44
I25
I226
I24
I42
I130
I277
I152
I62
I233
I120
I120
I347
I90
I243
I315
I60
I84
I113
I1198
I1106
I1951
I157
I260
tp206
a(I18215
I130
I410
I406
I448
I468
I248
I346
I45
I357
I178
I240
I97
I111
I55
I266
I27
I102
I290
I64
I21
I824
I346
I44
I57
I52
I117
I49
I68
I80
I359
I76
I38
I79
I156
I37
I45
I25
I28
I23
I17
I62
I19
I38
I8
I15
I117
I19
I25
I213
I271
I103
I86
I351
I19
I58
I195
I42
I179
I225
I183
I158
I23
I332
I12
I161
I168
I17
I339
I193
I506
I145
I79
I159
I152
I113
I67
I132
I44
I113
I215
I235
I15
I278
I75
I231
I64
I54
I30
I126
I210
I630
I221
I389
I257
I365
I896
I1190
I646
I296
tp207
a(I18221
I246
I266
I804
I132
I80
I321
I492
I250
I219
I466
I74
I43
I134
I85
I149
I40
I96
I321
I147
I27
I128
I49
I27
I13
I87
I21
I51
I30
I128
I95
I38
I18
I18
I21
I63
I137
I66
I26
I38
I186
I36
I183
I36
I132
I93
I99
I129
I39
I14
I632
I10
I343
I740
I1107
I9
I251
I62
I15
I49
I110
I263
I115
I500
I39
I548
I182
I50
I243
I86
I39
I71
I65
I123
I125
I40
I101
I31
I176
I195
I74
I77
I116
I394
I41
I65
I310
I123
I37
I25
I554
I55
I322
I501
I67
I1193
I426
I865
I52
I377
tp208
a(I18215
I165
I194
I130
I125
I31
I64
I194
I33
I98
I53
I59
I131
I85
I85
I51
I250
I270
I43
I28
I68
I96
I79
I248
I20
I15
I19
I78
I43
I38
I66
I43
I41
I76
I532
I17
I908
I249
I395
I56
I319
I62
I124
I157
I5
I10
I510
I98
I33
I33
I201
I545
I904
I20
I117
I91
I220
I350
I114
I21
I49
I118
I30
I89
I53
I50
I63
I8
I237
I169
I38
I60
I77
I33
I22
I281
I99
I34
I23
I32
I95
I564
I23
I38
I59
I47
I130
I94
I109
I41
I47
I324
I352
I198
I448
I452
I273
I306
I2340
I1778
tp209
a(I18215
I21
I28
I416
I42
I98
I82
I51
I232
I64
I30
I141
I16
I119
I56
I111
I518
I17
I17
I42
I48
I78
I60
I141
I96
I270
I97
I31
I262
I37
I56
I67
I34
I53
I61
I21
I34
I24
I36
I47
I28
I264
I80
I495
I113
I12
I266
I14
I840
I35
I70
I296
I466
I446
I7
I174
I359
I16
I184
I650
I440
I52
I49
I570
I6
I34
I761
I82
I466
I282
I45
I42
I839
I55
I74
I43
I191
I206
I242
I198
I81
I48
I161
I66
I267
I73
I38
I39
I36
I134
I237
I493
I24
I576
I390
I1228
I577
I108
I162
I509
tp210
a(I18218
I57
I79
I25
I29
I75
I12
I80
I61
I46
I133
I25
I44
I179
I20
I81
I40
I142
I170
I80
I44
I49
I163
I136
I242
I51
I60
I60
I18
I23
I132
I136
I151
I30
I64
I938
I502
I545
I612
I739
I67
I14
I67
I195
I114
I92
I43
I99
I469
I147
I490
I105
I67
I129
I63
I143
I100
I138
I62
I31
I44
I143
I79
I43
I82
I90
I89
I46
I31
I32
I26
I123
I310
I36
I110
I27
I298
I46
I177
I52
I87
I231
I60
I29
I102
I135
I42
I147
I21
I124
I66
I408
I70
I410
I186
I420
I446
I1194
I2822
I798
tp211
a(I18215
I242
I119
I155
I144
I46
I53
I24
I68
I86
I82
I17
I143
I128
I98
I105
I108
I116
I30
I300
I479
I78
I75
I196
I25
I85
I16
I249
I59
I373
I63
I82
I39
I61
I180
I92
I88
I1372
I95
I95
I447
I916
I114
I83
I58
I23
I247
I177
I11
I16
I220
I402
I113
I12
I47
I194
I19
I28
I58
I307
I84
I140
I118
I52
I142
I48
I629
I45
I35
I60
I24
I98
I21
I23
I91
I38
I109
I176
I34
I30
I66
I50
I84
I99
I132
I41
I56
I115
I80
I267
I57
I190
I96
I111
I309
I332
I253
I398
I25
I4277
tp212
a(I18215
I228
I293
I66
I222
I163
I94
I29
I42
I22
I12
I45
I77
I11
I159
I103
I41
I209
I46
I414
I55
I30
I139
I59
I15
I221
I22
I147
I131
I21
I18
I40
I71
I58
I315
I317
I75
I111
I190
I20
I42
I94
I118
I94
I301
I20
I18
I62
I180
I6
I108
I401
I33
I667
I109
I233
I205
I220
I85
I169
I72
I649
I258
I83
I163
I66
I84
I59
I138
I146
I88
I99
I22
I15
I48
I165
I36
I359
I248
I159
I63
I83
I55
I228
I106
I128
I63
I50
I75
I44
I156
I108
I285
I745
I130
I659
I346
I2271
I299
I2046
tp213
a(I18251
I18
I158
I147
I63
I201
I278
I30
I15
I50
I16
I32
I39
I113
I65
I12
I37
I88
I31
I51
I14
I56
I45
I13
I53
I128
I84
I29
I38
I122
I106
I41
I55
I177
I288
I184
I72
I31
I27
I89
I507
I348
I39
I839
I46
I517
I117
I294
I281
I280
I111
I76
I101
I73
I743
I48
I185
I212
I157
I167
I11
I68
I247
I20
I122
I71
I59
I19
I45
I301
I70
I37
I260
I55
I105
I25
I108
I109
I40
I127
I276
I266
I48
I176
I114
I43
I78
I88
I70
I18
I280
I405
I528
I349
I189
I243
I879
I1382
I2581
I208
tp214
a(I18226
I39
I16
I37
I36
I47
I15
I143
I66
I21
I13
I114
I28
I60
I74
I43
I28
I73
I85
I42
I36
I244
I21
I76
I124
I48
I140
I59
I28
I101
I158
I122
I58
I40
I39
I379
I363
I109
I454
I205
I918
I218
I407
I87
I905
I138
I799
I247
I236
I135
I35
I203
I89
I66
I33
I34
I59
I41
I41
I76
I444
I217
I31
I110
I107
I86
I33
I63
I141
I32
I60
I74
I40
I108
I78
I255
I36
I52
I35
I87
I117
I114
I24
I244
I405
I77
I10
I53
I190
I227
I463
I377
I18
I327
I656
I4
I2055
I1253
I694
I434
tp215
a(I18215
I218
I166
I47
I29
I98
I71
I34
I36
I107
I225
I106
I42
I237
I147
I46
I122
I970
I227
I64
I225
I520
I283
I55
I43
I54
I43
I170
I115
I117
I100
I73
I139
I58
I139
I24
I187
I24
I428
I309
I102
I64
I672
I23
I44
I51
I597
I593
I174
I420
I282
I30
I317
I145
I67
I186
I130
I9
I160
I20
I5
I62
I43
I58
I9
I123
I262
I55
I168
I105
I82
I21
I64
I85
I96
I214
I276
I51
I93
I56
I252
I263
I309
I107
I172
I265
I46
I92
I121
I53
I143
I90
I277
I26
I193
I151
I1063
I1381
I1129
I148
tp216
a(I18219
I217
I114
I130
I17
I220
I58
I134
I55
I70
I351
I14
I433
I33
I147
I103
I30
I261
I89
I64
I54
I22
I27
I31
I159
I177
I155
I59
I42
I78
I41
I87
I78
I163
I59
I63
I74
I69
I66
I68
I29
I125
I39
I123
I889
I86
I138
I49
I279
I69
I559
I43
I88
I92
I95
I520
I584
I229
I66
I6
I76
I16
I37
I7
I233
I149
I211
I27
I174
I153
I245
I27
I87
I41
I107
I76
I41
I26
I193
I248
I27
I39
I48
I329
I116
I399
I71
I62
I65
I90
I71
I82
I129
I181
I227
I182
I489
I1956
I1640
I1792
tp217
a(I18215
I59
I23
I79
I37
I17
I52
I65
I20
I25
I118
I37
I21
I48
I47
I61
I45
I83
I176
I99
I247
I193
I52
I55
I112
I28
I47
I121
I710
I1664
I744
I394
I1171
I1078
I26
I37
I23
I143
I12
I112
I128
I71
I81
I94
I39
I8
I72
I34
I49
I76
I118
I110
I158
I42
I94
I31
I125
I31
I91
I251
I26
I422
I16
I14
I41
I15
I27
I41
I53
I34
I29
I139
I48
I46
I131
I40
I114
I16
I234
I20
I183
I246
I271
I18
I50
I163
I150
I34
I265
I193
I62
I452
I555
I1516
I374
I12
I278
I1220
I939
I122
tp218
a(I18215
I185
I219
I173
I26
I80
I136
I24
I176
I39
I50
I154
I847
I251
I131
I316
I31
I88
I82
I140
I31
I21
I33
I65
I84
I18
I72
I65
I174
I128
I135
I98
I549
I321
I52
I204
I111
I263
I147
I422
I104
I89
I200
I10
I55
I172
I152
I58
I332
I461
I242
I137
I59
I537
I8
I119
I25
I31
I279
I147
I755
I84
I193
I81
I156
I122
I194
I212
I269
I107
I91
I31
I61
I88
I142
I102
I46
I87
I102
I56
I58
I129
I144
I37
I238
I360
I83
I66
I106
I5
I143
I96
I178
I330
I56
I17
I1305
I844
I1466
I395
tp219
a(I18227
I124
I27
I97
I18
I80
I187
I14
I63
I462
I15
I146
I28
I39
I72
I40
I58
I373
I241
I83
I152
I79
I33
I85
I189
I53
I323
I38
I43
I16
I31
I219
I67
I253
I13
I79
I20
I427
I52
I28
I62
I69
I157
I48
I25
I80
I117
I64
I352
I35
I58
I348
I77
I257
I181
I244
I462
I293
I233
I838
I207
I286
I190
I172
I203
I114
I31
I63
I227
I38
I425
I173
I69
I29
I123
I62
I17
I63
I164
I272
I59
I34
I621
I38
I37
I122
I82
I44
I86
I146
I26
I226
I71
I294
I65
I692
I1746
I717
I1545
I435
tp220
a(I18215
I432
I2657
I69
I649
I220
I170
I108
I26
I41
I53
I12
I172
I91
I225
I117
I134
I1616
I20
I43
I180
I88
I159
I50
I74
I73
I295
I23
I148
I47
I121
I22
I20
I72
I40
I38
I163
I137
I8
I24
I18
I27
I137
I67
I151
I33
I7
I357
I40
I188
I136
I557
I189
I95
I9
I25
I302
I384
I103
I268
I12
I441
I96
I57
I39
I38
I78
I43
I87
I549
I11
I165
I97
I41
I38
I570
I55
I305
I48
I38
I60
I101
I58
I116
I153
I220
I86
I336
I33
I143
I65
I71
I201
I392
I79
I225
I242
I612
I597
I65
tp221
a(I18222
I73
I89
I82
I78
I22
I29
I128
I142
I97
I120
I142
I13
I167
I47
I36
I54
I61
I48
I68
I245
I16
I39
I176
I28
I27
I144
I19
I67
I139
I60
I379
I47
I23
I91
I229
I27
I67
I50
I63
I365
I228
I128
I204
I169
I284
I37
I179
I1053
I44
I487
I8
I140
I661
I484
I17
I269
I131
I80
I47
I449
I22
I288
I66
I171
I168
I193
I137
I113
I255
I281
I27
I29
I65
I152
I35
I261
I37
I157
I68
I48
I55
I36
I285
I16
I73
I501
I201
I70
I68
I234
I103
I579
I180
I510
I11
I1995
I851
I83
I1066
tp222
a(I18215
I65
I236
I164
I175
I165
I19
I25
I101
I18
I164
I22
I100
I36
I21
I128
I13
I100
I198
I58
I52
I25
I46
I17
I27
I71
I25
I97
I55
I21
I94
I72
I150
I63
I107
I132
I258
I146
I170
I55
I190
I76
I23
I22
I26
I62
I234
I223
I541
I77
I26
I303
I649
I192
I440
I164
I443
I6
I953
I6
I112
I157
I154
I16
I16
I11
I85
I177
I31
I37
I79
I69
I31
I18
I181
I326
I564
I139
I50
I80
I96
I125
I37
I67
I61
I367
I203
I41
I40
I43
I107
I67
I267
I186
I196
I30
I8
I245
I22
I5705
tp223
a(I18221
I367
I413
I116
I57
I56
I77
I25
I27
I103
I203
I182
I61
I151
I162
I425
I321
I295
I40
I87
I20
I156
I64
I72
I52
I115
I51
I102
I16
I390
I514
I43
I21
I51
I92
I166
I162
I36
I75
I44
I174
I121
I77
I153
I56
I475
I23
I107
I181
I4
I81
I113
I927
I678
I5
I11
I576
I9
I34
I48
I52
I9
I14
I126
I39
I381
I79
I13
I290
I130
I125
I13
I61
I107
I11
I166
I19
I44
I263
I205
I110
I156
I41
I111
I32
I25
I218
I113
I142
I109
I285
I97
I54
I138
I144
I322
I3129
I1253
I494
I4
tp224
a(I18224
I86
I36
I135
I37
I13
I121
I279
I102
I186
I52
I70
I114
I27
I48
I32
I32
I58
I50
I21
I47
I88
I171
I37
I268
I120
I307
I113
I26
I157
I57
I219
I123
I293
I6
I207
I212
I348
I357
I416
I45
I854
I589
I25
I17
I230
I666
I180
I78
I376
I167
I89
I94
I61
I128
I47
I34
I41
I8
I177
I134
I167
I305
I33
I74
I53
I20
I67
I330
I60
I68
I25
I52
I12
I46
I164
I39
I25
I28
I272
I62
I157
I127
I139
I21
I73
I62
I29
I359
I124
I257
I60
I130
I76
I241
I361
I609
I787
I2144
I1615
tp225
a(I18215
I402
I381
I93
I41
I60
I302
I170
I63
I14
I67
I372
I48
I338
I402
I60
I696
I50
I53
I151
I255
I162
I1263
I47
I139
I48
I63
I242
I25
I14
I68
I402
I31
I65
I81
I40
I9
I149
I82
I6
I10
I30
I92
I7
I230
I9
I28
I277
I408
I413
I32
I262
I776
I202
I62
I370
I171
I6
I471
I5
I17
I178
I276
I19
I19
I128
I92
I30
I93
I50
I177
I135
I184
I132
I83
I83
I37
I174
I20
I54
I57
I95
I45
I146
I18
I36
I34
I70
I208
I73
I26
I72
I190
I97
I552
I406
I1847
I453
I777
I395
tp226
a(I18220
I347
I175
I82
I155
I58
I139
I60
I90
I85
I169
I81
I76
I43
I69
I180
I66
I23
I43
I24
I56
I154
I10
I235
I60
I85
I18
I25
I33
I82
I38
I17
I201
I231
I340
I167
I105
I715
I21
I77
I8
I164
I4
I567
I5
I41
I375
I77
I4
I858
I484
I7
I46
I5
I356
I44
I64
I134
I224
I359
I50
I73
I90
I58
I102
I65
I92
I140
I56
I65
I33
I48
I117
I65
I19
I51
I48
I92
I25
I60
I105
I373
I51
I42
I39
I72
I112
I236
I152
I128
I151
I69
I284
I1023
I434
I215
I717
I949
I1935
I1491
tp227
a(I18215
I839
I426
I265
I314
I114
I75
I113
I109
I71
I73
I241
I754
I127
I173
I457
I52
I311
I43
I207
I34
I47
I143
I699
I277
I183
I113
I22
I7
I118
I7
I17
I262
I103
I28
I82
I66
I52
I56
I129
I6
I33
I6
I90
I229
I319
I66
I259
I49
I8
I64
I84
I257
I125
I73
I589
I56
I4
I222
I13
I157
I98
I85
I366
I13
I106
I4
I284
I136
I60
I169
I33
I74
I155
I344
I47
I229
I17
I24
I92
I74
I51
I118
I93
I68
I32
I44
I92
I45
I363
I136
I62
I51
I358
I35
I54
I297
I1354
I2365
I447
tp228
a(I18215
I327
I417
I343
I34
I191
I667
I118
I52
I41
I46
I77
I102
I107
I102
I68
I103
I32
I272
I369
I49
I63
I109
I77
I24
I212
I420
I14
I174
I295
I88
I160
I31
I114
I225
I18
I401
I28
I32
I198
I26
I416
I19
I71
I49
I89
I6
I24
I29
I27
I235
I223
I358
I90
I545
I4
I76
I15
I6
I604
I12
I479
I147
I119
I34
I24
I344
I74
I17
I7
I14
I146
I56
I245
I37
I100
I130
I56
I31
I282
I82
I92
I175
I29
I69
I144
I3
I69
I59
I94
I137
I108
I150
I482
I97
I289
I1912
I2676
I257
I3
tp229
a(I18215
I29
I1456
I1237
I315
I280
I111
I91
I538
I22
I105
I31
I149
I33
I32
I1410
I129
I258
I43
I29
I29
I22
I120
I38
I98
I161
I126
I132
I122
I36
I38
I91
I148
I13
I62
I115
I9
I83
I161
I108
I48
I4
I43
I180
I72
I24
I43
I204
I235
I55
I89
I116
I119
I45
I100
I216
I305
I377
I192
I46
I19
I534
I60
I76
I12
I127
I26
I55
I113
I87
I44
I49
I62
I27
I116
I131
I69
I247
I157
I53
I72
I53
I22
I24
I49
I35
I52
I10
I89
I63
I137
I51
I157
I139
I114
I65
I1271
I1840
I1192
I371
tp230
a(I18219
I174
I218
I189
I86
I25
I162
I53
I58
I61
I353
I140
I260
I109
I40
I86
I109
I215
I62
I140
I120
I215
I302
I442
I64
I118
I84
I355
I17
I55
I116
I104
I58
I184
I12
I346
I573
I135
I130
I111
I26
I391
I4
I28
I463
I461
I8
I217
I8
I1420
I4
I173
I56
I94
I38
I38
I60
I8
I69
I22
I95
I53
I20
I182
I63
I65
I52
I22
I56
I169
I67
I38
I102
I25
I44
I281
I55
I170
I56
I55
I283
I70
I91
I149
I80
I206
I184
I62
I126
I43
I863
I548
I1701
I225
I237
I40
I589
I129
I503
I921
tp231
a(I18217
I181
I101
I51
I38
I38
I124
I116
I20
I38
I37
I389
I212
I64
I456
I16
I43
I31
I89
I59
I421
I63
I20
I148
I69
I92
I17
I33
I50
I90
I82
I266
I22
I192
I39
I95
I8
I45
I206
I47
I7
I348
I93
I85
I709
I447
I87
I91
I323
I91
I440
I199
I352
I506
I60
I271
I269
I79
I442
I53
I7
I328
I171
I47
I51
I64
I131
I91
I102
I77
I28
I128
I17
I207
I262
I21
I84
I352
I87
I107
I131
I41
I18
I35
I77
I106
I571
I24
I111
I132
I97
I374
I98
I359
I295
I278
I1372
I878
I1225
I747
tp232
a(I18215
I436
I419
I477
I129
I344
I466
I209
I521
I234
I299
I71
I427
I162
I309
I107
I419
I71
I582
I297
I105
I78
I46
I46
I67
I125
I142
I76
I82
I91
I12
I7
I179
I10
I8
I175
I150
I115
I30
I55
I33
I42
I25
I17
I90
I14
I5
I287
I341
I5
I558
I28
I6
I4
I25
I90
I120
I309
I601
I86
I106
I175
I6
I199
I69
I113
I53
I64
I298
I19
I163
I92
I83
I78
I88
I93
I32
I57
I31
I73
I44
I58
I96
I53
I71
I42
I22
I341
I41
I976
I120
I59
I129
I141
I60
I151
I168
I2387
I1127
I151
tp233
a(I18215
I615
I273
I281
I39
I15
I10
I30
I67
I315
I233
I30
I18
I117
I18
I43
I14
I28
I46
I46
I27
I100
I164
I39
I84
I50
I506
I73
I71
I20
I27
I72
I45
I89
I385
I21
I33
I191
I171
I118
I201
I137
I152
I16
I57
I57
I4
I80
I214
I86
I766
I4
I291
I242
I148
I134
I23
I128
I49
I321
I246
I247
I62
I78
I605
I127
I205
I38
I221
I536
I24
I103
I49
I9
I377
I35
I641
I69
I183
I42
I44
I128
I4
I52
I533
I391
I355
I106
I457
I4
I143
I107
I273
I311
I312
I43
I643
I988
I1610
I358
tp234
a(I18218
I229
I146
I64
I47
I30
I217
I111
I180
I15
I38
I85
I23
I41
I17
I468
I66
I215
I65
I170
I81
I20
I47
I45
I22
I9
I53
I85
I16
I38
I128
I47
I26
I40
I18
I58
I29
I133
I66
I74
I40
I24
I91
I176
I40
I27
I61
I591
I346
I532
I23
I57
I1152
I322
I279
I90
I352
I519
I45
I201
I118
I84
I190
I117
I119
I68
I41
I49
I103
I49
I187
I269
I79
I121
I27
I78
I85
I99
I156
I98
I170
I45
I140
I11
I29
I163
I60
I91
I144
I367
I44
I254
I25
I311
I219
I1993
I2713
I626
I420
I198
tp235
a(I18220
I28
I51
I9
I25
I26
I124
I79
I70
I120
I45
I141
I37
I30
I18
I101
I84
I39
I47
I63
I46
I44
I42
I145
I97
I96
I153
I216
I112
I140
I62
I371
I70
I101
I130
I733
I71
I361
I400
I633
I80
I99
I538
I49
I66
I869
I127
I1006
I64
I81
I102
I182
I124
I209
I108
I138
I245
I137
I89
I111
I134
I87
I27
I34
I44
I61
I308
I16
I14
I145
I193
I84
I235
I101
I42
I87
I48
I234
I55
I70
I119
I265
I55
I191
I42
I75
I73
I156
I169
I111
I40
I38
I72
I290
I1444
I775
I752
I1449
I169
I500
tp236
a(I18215
I59
I76
I67
I85
I50
I49
I98
I169
I39
I25
I149
I78
I125
I66
I65
I16
I91
I29
I41
I33
I206
I61
I26
I207
I20
I20
I184
I25
I50
I93
I77
I417
I181
I56
I415
I69
I25
I126
I337
I337
I699
I208
I752
I145
I516
I35
I83
I448
I49
I338
I97
I266
I12
I128
I137
I14
I337
I174
I167
I350
I167
I132
I63
I122
I65
I34
I57
I28
I60
I23
I34
I53
I75
I66
I85
I89
I103
I16
I88
I70
I294
I65
I154
I233
I30
I103
I140
I290
I337
I489
I561
I67
I290
I352
I328
I266
I2498
I127
I1042
tp237
a(I18215
I157
I61
I30
I45
I71
I164
I23
I16
I40
I213
I120
I188
I241
I28
I65
I122
I84
I316
I71
I312
I68
I80
I94
I202
I191
I186
I86
I125
I104
I102
I354
I97
I398
I121
I164
I278
I376
I717
I27
I37
I336
I360
I251
I65
I36
I101
I11
I31
I181
I48
I72
I268
I97
I219
I42
I253
I133
I17
I188
I37
I118
I19
I183
I263
I28
I218
I53
I13
I95
I51
I34
I13
I63
I70
I102
I52
I118
I225
I48
I55
I122
I195
I89
I291
I298
I302
I201
I75
I96
I393
I240
I435
I149
I53
I278
I18
I2803
I1507
I107
tp238
a(I18224
I37
I161
I180
I39
I128
I32
I44
I86
I26
I110
I121
I204
I50
I39
I48
I322
I52
I138
I20
I123
I34
I169
I466
I187
I61
I168
I98
I30
I332
I40
I202
I150
I71
I44
I66
I56
I698
I139
I22
I193
I186
I10
I23
I111
I203
I261
I134
I12
I13
I135
I616
I513
I64
I7
I93
I156
I87
I544
I141
I135
I86
I39
I137
I124
I21
I31
I130
I16
I43
I41
I93
I125
I180
I136
I10
I83
I52
I101
I190
I76
I74
I779
I308
I37
I40
I351
I137
I25
I140
I62
I66
I333
I366
I502
I125
I291
I1686
I2018
I700
tp239
a(I18239
I110
I339
I129
I49
I41
I52
I38
I68
I92
I82
I30
I85
I8
I102
I34
I23
I149
I99
I56
I52
I39
I25
I47
I81
I33
I41
I138
I54
I46
I42
I32
I41
I79
I140
I262
I207
I614
I255
I14
I20
I12
I15
I446
I840
I10
I332
I327
I80
I407
I124
I421
I530
I131
I192
I142
I203
I20
I32
I226
I71
I50
I67
I46
I307
I75
I46
I96
I112
I89
I33
I35
I137
I45
I103
I59
I207
I59
I325
I57
I190
I68
I23
I136
I34
I106
I73
I173
I744
I197
I393
I113
I172
I513
I334
I374
I139
I120
I2133
I1977
tp240
a(I18218
I125
I114
I231
I96
I80
I127
I111
I97
I104
I295
I68
I136
I17
I228
I48
I212
I46
I29
I66
I189
I92
I103
I45
I46
I84
I112
I296
I166
I346
I43
I15
I269
I607
I406
I531
I10
I61
I45
I245
I381
I241
I245
I4
I340
I5
I223
I35
I167
I530
I17
I5
I18
I301
I71
I63
I94
I348
I105
I26
I40
I28
I51
I21
I266
I38
I32
I64
I37
I37
I31
I29
I154
I82
I90
I39
I35
I87
I127
I29
I52
I136
I64
I130
I119
I43
I118
I21
I49
I249
I283
I212
I742
I446
I289
I503
I751
I367
I20
I3319
tp241
a(I18215
I624
I506
I416
I369
I41
I112
I260
I91
I164
I72
I771
I261
I120
I313
I18
I1498
I239
I18
I165
I115
I109
I96
I125
I26
I28
I69
I33
I70
I185
I43
I205
I44
I15
I129
I116
I65
I29
I45
I39
I117
I138
I41
I13
I171
I105
I10
I14
I227
I6
I322
I76
I5
I74
I221
I16
I623
I209
I4
I34
I71
I80
I183
I161
I14
I63
I229
I44
I6
I365
I181
I144
I231
I63
I27
I40
I318
I10
I155
I41
I64
I313
I174
I136
I189
I51
I65
I375
I175
I232
I82
I170
I184
I151
I217
I362
I1828
I803
I6
I320
tp242
a(I18215
I315
I722
I25
I29
I127
I75
I35
I58
I52
I35
I217
I179
I158
I23
I499
I35
I181
I68
I33
I17
I74
I704
I35
I96
I72
I137
I151
I245
I121
I142
I46
I305
I31
I41
I34
I110
I42
I98
I11
I55
I75
I6
I153
I95
I15
I124
I117
I755
I415
I442
I52
I222
I138
I305
I9
I94
I470
I371
I452
I31
I53
I146
I77
I189
I30
I15
I43
I202
I174
I178
I52
I31
I96
I15
I68
I68
I37
I37
I94
I92
I69
I151
I136
I187
I135
I59
I63
I359
I54
I133
I959
I16
I163
I190
I3088
I123
I446
I571
I20
tp243
a(I18215
I296
I205
I263
I90
I54
I213
I181
I181
I44
I60
I20
I163
I146
I151
I64
I75
I39
I365
I231
I234
I79
I145
I39
I123
I243
I65
I26
I288
I65
I17
I72
I653
I15
I53
I237
I75
I48
I67
I61
I54
I216
I58
I49
I60
I52
I108
I6
I62
I235
I68
I226
I160
I87
I363
I136
I168
I230
I25
I125
I76
I8
I116
I87
I56
I122
I343
I84
I112
I415
I92
I147
I125
I98
I86
I116
I184
I21
I749
I269
I199
I47
I503
I64
I339
I82
I249
I81
I127
I150
I60
I198
I159
I389
I14
I457
I426
I1431
I1600
I578
tp244
a(I18217
I256
I281
I155
I108
I55
I44
I153
I56
I46
I130
I65
I90
I127
I40
I672
I11
I18
I224
I50
I235
I65
I19
I47
I75
I49
I158
I224
I65
I183
I22
I84
I131
I56
I61
I27
I2556
I4
I339
I71
I217
I313
I128
I31
I211
I24
I83
I557
I58
I495
I20
I86
I267
I162
I22
I23
I23
I134
I108
I94
I165
I13
I21
I24
I31
I16
I120
I4
I66
I43
I49
I25
I18
I74
I28
I140
I258
I95
I90
I41
I144
I42
I276
I32
I155
I49
I85
I72
I155
I204
I277
I356
I318
I649
I1495
I865
I933
I288
I217
I350
tp245
a(I18223
I449
I326
I317
I39
I297
I87
I98
I233
I104
I43
I224
I44
I114
I421
I24
I87
I11
I200
I216
I299
I243
I96
I87
I24
I115
I81
I38
I79
I43
I85
I41
I30
I52
I53
I35
I16
I124
I160
I27
I23
I21
I87
I19
I41
I19
I390
I115
I6
I37
I160
I347
I8
I32
I4
I767
I818
I391
I1182
I149
I20
I10
I8
I358
I145
I26
I46
I21
I14
I181
I198
I77
I95
I46
I25
I84
I101
I45
I50
I23
I188
I278
I227
I60
I34
I35
I55
I79
I145
I596
I357
I211
I393
I802
I779
I30
I1961
I353
I205
I346
tp246
a(I18215
I203
I37
I229
I220
I58
I326
I76
I196
I45
I124
I14
I18
I66
I71
I85
I109
I23
I54
I51
I22
I54
I41
I50
I20
I19
I55
I296
I73
I65
I64
I14
I65
I15
I38
I138
I165
I112
I694
I485
I53
I25
I772
I1550
I358
I10
I6
I28
I87
I269
I113
I145
I30
I415
I61
I61
I42
I70
I37
I6
I105
I560
I134
I66
I28
I51
I16
I49
I46
I22
I88
I53
I124
I46
I43
I40
I102
I98
I60
I44
I612
I27
I42
I174
I34
I65
I49
I70
I260
I120
I93
I76
I460
I259
I367
I488
I364
I2363
I1840
I227
tp247
a(I18215
I42
I69
I52
I112
I17
I69
I6
I35
I91
I80
I28
I203
I66
I59
I42
I55
I40
I204
I199
I99
I21
I81
I100
I48
I53
I143
I150
I305
I62
I415
I245
I1224
I905
I423
I68
I1166
I370
I233
I477
I163
I29
I371
I120
I153
I175
I91
I35
I122
I28
I43
I35
I156
I156
I31
I21
I32
I181
I67
I31
I135
I44
I183
I53
I50
I48
I107
I106
I326
I14
I107
I32
I112
I40
I27
I47
I73
I9
I95
I21
I169
I20
I162
I33
I213
I126
I353
I162
I142
I84
I107
I287
I462
I221
I243
I581
I671
I682
I1487
I462
tp248
a(I18216
I62
I44
I43
I107
I12
I45
I12
I29
I120
I532
I119
I91
I19
I45
I40
I12
I76
I76
I12
I31
I25
I33
I43
I96
I28
I15
I106
I36
I379
I76
I157
I25
I38
I44
I169
I354
I1706
I70
I60
I1774
I155
I664
I96
I46
I272
I454
I142
I59
I28
I10
I143
I11
I104
I69
I27
I70
I50
I28
I86
I32
I95
I93
I177
I30
I27
I177
I49
I84
I107
I30
I35
I13
I46
I136
I39
I75
I27
I84
I147
I110
I87
I35
I112
I181
I71
I54
I75
I236
I98
I272
I55
I928
I108
I409
I404
I446
I503
I1553
I1877
tp249
a(I18215
I294
I628
I92
I75
I301
I196
I230
I227
I24
I895
I74
I60
I55
I313
I206
I39
I125
I75
I159
I39
I70
I74
I63
I90
I120
I80
I123
I39
I34
I45
I233
I77
I34
I56
I46
I77
I105
I51
I64
I9
I44
I214
I83
I255
I37
I41
I359
I129
I26
I66
I73
I12
I450
I350
I91
I143
I105
I19
I59
I243
I167
I552
I161
I434
I190
I148
I56
I117
I230
I133
I64
I167
I220
I205
I41
I61
I380
I213
I310
I134
I240
I32
I236
I26
I60
I184
I54
I124
I325
I617
I536
I850
I780
I73
I192
I462
I518
I8
I697
tp250
a(I18215
I175
I90
I53
I35
I98
I64
I57
I25
I15
I30
I43
I35
I35
I86
I138
I38
I21
I74
I30
I143
I31
I190
I55
I106
I134
I17
I250
I146
I70
I8
I216
I43
I84
I57
I37
I211
I110
I344
I13
I309
I162
I6
I76
I190
I62
I146
I101
I54
I669
I23
I481
I1135
I202
I406
I303
I314
I94
I400
I116
I181
I49
I42
I125
I143
I69
I22
I296
I47
I29
I74
I39
I96
I138
I125
I26
I51
I51
I40
I28
I22
I93
I29
I64
I21
I154
I189
I61
I75
I73
I122
I51
I302
I481
I630
I512
I8
I3071
I1944
I164
tp251
a(I18215
I57
I54
I119
I20
I11
I230
I51
I148
I118
I115
I27
I16
I136
I336
I30
I106
I33
I143
I54
I43
I19
I176
I29
I49
I164
I61
I29
I320
I24
I54
I43
I17
I76
I179
I335
I62
I307
I315
I35
I163
I34
I409
I61
I118
I36
I618
I65
I319
I401
I115
I82
I229
I137
I218
I77
I188
I58
I83
I62
I55
I328
I47
I39
I135
I32
I209
I33
I199
I139
I95
I48
I14
I83
I32
I100
I22
I58
I73
I34
I187
I113
I22
I27
I305
I161
I153
I274
I56
I49
I39
I347
I28
I387
I210
I796
I1009
I3244
I1479
I118
tp252
a(I18253
I77
I43
I74
I86
I25
I110
I114
I42
I50
I121
I21
I61
I17
I100
I80
I36
I147
I16
I22
I83
I166
I55
I98
I68
I43
I12
I21
I42
I31
I76
I78
I49
I117
I42
I210
I69
I220
I117
I344
I176
I82
I208
I643
I1503
I42
I27
I808
I306
I109
I98
I128
I20
I172
I136
I288
I107
I107
I280
I18
I60
I209
I255
I61
I159
I174
I36
I17
I26
I59
I36
I17
I43
I236
I49
I213
I26
I110
I106
I92
I255
I282
I342
I44
I85
I100
I575
I84
I25
I50
I70
I62
I79
I32
I254
I76
I154
I435
I4809
I117
tp253
a(I18241
I70
I68
I63
I146
I179
I46
I15
I258
I130
I166
I68
I147
I188
I17
I85
I26
I70
I113
I116
I28
I492
I94
I220
I108
I102
I110
I91
I162
I126
I31
I215
I63
I76
I16
I224
I234
I786
I49
I804
I101
I190
I169
I1216
I213
I95
I151
I29
I458
I81
I192
I192
I32
I71
I26
I34
I188
I81
I30
I181
I80
I311
I151
I56
I26
I34
I45
I19
I34
I18
I31
I127
I32
I17
I38
I158
I31
I288
I38
I47
I24
I51
I68
I58
I56
I70
I147
I112
I341
I42
I615
I163
I398
I258
I26
I252
I860
I752
I2100
I661
tp254
a(I18218
I93
I147
I197
I34
I169
I40
I35
I10
I40
I88
I11
I12
I93
I208
I395
I320
I29
I8
I112
I48
I293
I18
I31
I65
I129
I30
I143
I30
I83
I97
I89
I51
I33
I185
I248
I41
I147
I57
I49
I220
I750
I101
I234
I98
I48
I84
I36
I25
I9
I1281
I504
I9
I1085
I1015
I151
I118
I102
I123
I194
I205
I32
I56
I41
I131
I40
I25
I35
I13
I44
I27
I55
I205
I15
I17
I225
I43
I25
I22
I49
I90
I16
I135
I57
I36
I41
I61
I135
I90
I131
I174
I100
I290
I327
I82
I1124
I2232
I1067
I463
I339
tp255
a(I18215
I1248
I40
I1126
I49
I28
I297
I144
I13
I436
I60
I346
I445
I25
I51
I51
I26
I112
I55
I9
I420
I237
I206
I87
I328
I15
I308
I78
I56
I15
I25
I52
I17
I20
I79
I25
I50
I39
I58
I124
I79
I81
I61
I50
I191
I10
I192
I446
I35
I11
I40
I11
I487
I5
I66
I87
I72
I10
I8
I7
I151
I181
I807
I264
I283
I80
I63
I284
I677
I105
I10
I35
I122
I86
I71
I175
I96
I145
I75
I249
I65
I173
I47
I72
I27
I39
I93
I25
I34
I36
I75
I231
I177
I70
I189
I412
I50
I447
I2944
I479
tp256
a(I18215
I95
I36
I75
I104
I124
I54
I150
I52
I133
I64
I450
I240
I87
I92
I46
I10
I90
I68
I34
I98
I64
I499
I127
I66
I23
I298
I39
I127
I117
I212
I31
I58
I127
I62
I60
I41
I103
I7
I58
I20
I67
I356
I148
I132
I50
I205
I26
I101
I6
I239
I1385
I227
I10
I101
I22
I205
I64
I593
I113
I166
I172
I11
I277
I129
I150
I235
I350
I56
I539
I302
I128
I19
I356
I79
I58
I82
I107
I32
I61
I205
I41
I189
I124
I86
I168
I38
I71
I52
I174
I192
I61
I130
I494
I134
I218
I780
I2158
I733
I745
tp257
a(I18215
I294
I1150
I513
I751
I71
I88
I787
I110
I519
I179
I36
I76
I15
I22
I143
I103
I53
I55
I80
I263
I90
I30
I26
I116
I91
I51
I45
I108
I186
I33
I214
I74
I30
I25
I295
I77
I12
I13
I165
I25
I7
I544
I271
I415
I65
I19
I173
I12
I34
I9
I6
I545
I120
I80
I41
I11
I10
I126
I27
I21
I269
I138
I36
I379
I9
I293
I38
I80
I12
I45
I107
I17
I52
I90
I31
I180
I137
I340
I126
I113
I21
I20
I184
I53
I29
I34
I69
I80
I115
I367
I148
I207
I231
I429
I681
I1220
I963
I1357
I143
tp258
a(I18215
I154
I102
I36
I117
I42
I51
I8
I65
I82
I142
I290
I46
I259
I68
I43
I48
I33
I134
I14
I31
I66
I141
I55
I83
I204
I64
I143
I129
I292
I62
I153
I80
I452
I220
I85
I157
I68
I103
I208
I439
I88
I140
I322
I111
I119
I96
I125
I14
I82
I30
I143
I43
I133
I130
I50
I371
I284
I400
I22
I39
I9
I509
I76
I202
I195
I73
I93
I66
I181
I174
I149
I177
I90
I276
I67
I73
I40
I83
I74
I31
I38
I39
I26
I47
I201
I82
I193
I176
I92
I281
I300
I52
I145
I322
I557
I1568
I1569
I1960
I396
tp259
a(I18222
I31
I31
I70
I69
I17
I12
I8
I31
I36
I77
I15
I75
I30
I14
I41
I78
I59
I98
I90
I108
I177
I91
I18
I104
I43
I207
I124
I70
I283
I126
I151
I2309
I165
I20
I48
I395
I950
I173
I389
I70
I156
I44
I222
I78
I95
I32
I89
I109
I62
I143
I492
I5
I44
I81
I124
I90
I86
I78
I33
I331
I47
I188
I71
I20
I33
I120
I100
I84
I135
I29
I43
I153
I57
I19
I95
I157
I82
I50
I90
I17
I80
I90
I236
I373
I109
I161
I232
I77
I203
I174
I287
I175
I1146
I214
I749
I15
I865
I1792
I521
tp260
a(I18215
I1149
I517
I19
I305
I53
I226
I108
I219
I22
I177
I55
I37
I134
I145
I37
I80
I110
I72
I19
I27
I104
I232
I37
I194
I448
I81
I343
I138
I33
I96
I38
I41
I45
I32
I82
I132
I40
I146
I199
I165
I36
I301
I45
I45
I216
I8
I95
I58
I136
I140
I461
I233
I67
I554
I182
I76
I261
I111
I178
I73
I149
I617
I326
I42
I10
I62
I36
I36
I497
I70
I139
I57
I73
I117
I69
I165
I71
I83
I474
I246
I440
I94
I61
I186
I488
I62
I30
I304
I144
I185
I196
I679
I308
I538
I1078
I599
I41
I90
I118
tp261
a(I18225
I697
I514
I36
I343
I379
I39
I458
I57
I72
I75
I212
I55
I59
I93
I88
I135
I71
I203
I24
I62
I326
I104
I148
I664
I48
I157
I41
I37
I45
I56
I29
I175
I23
I42
I77
I116
I234
I40
I208
I58
I72
I204
I33
I219
I54
I31
I41
I6
I354
I449
I145
I24
I11
I65
I283
I22
I275
I174
I12
I91
I331
I293
I30
I182
I288
I38
I122
I172
I95
I48
I204
I204
I91
I174
I41
I96
I62
I138
I58
I80
I104
I26
I61
I229
I69
I40
I28
I73
I49
I233
I188
I174
I185
I141
I333
I346
I692
I3479
I321
tp262
a(I18228
I31
I205
I264
I91
I48
I64
I129
I75
I94
I26
I102
I128
I15
I45
I28
I46
I73
I40
I34
I29
I21
I47
I81
I67
I75
I54
I129
I29
I113
I128
I43
I70
I175
I144
I48
I242
I64
I109
I86
I33
I527
I380
I48
I498
I251
I275
I205
I88
I684
I292
I11
I41
I509
I525
I810
I331
I278
I76
I161
I102
I80
I185
I54
I79
I55
I34
I31
I118
I37
I33
I67
I19
I35
I225
I30
I26
I23
I155
I231
I33
I45
I42
I32
I31
I65
I39
I97
I121
I53
I160
I198
I244
I184
I190
I159
I26
I1168
I4440
I119
tp263
a(I18228
I26
I80
I95
I41
I82
I136
I30
I169
I59
I39
I72
I55
I25
I14
I15
I18
I134
I108
I99
I260
I74
I99
I47
I29
I46
I28
I21
I65
I68
I158
I150
I126
I53
I110
I179
I132
I359
I282
I312
I256
I251
I494
I364
I23
I89
I101
I354
I263
I874
I556
I744
I176
I60
I78
I149
I63
I155
I123
I67
I6
I152
I20
I11
I88
I15
I101
I156
I11
I266
I184
I43
I32
I95
I46
I57
I80
I48
I65
I342
I48
I428
I85
I53
I665
I39
I39
I197
I39
I37
I121
I51
I213
I298
I140
I384
I1303
I583
I1604
I1100
tp264
a(I18215
I19
I248
I69
I68
I29
I49
I130
I142
I72
I94
I91
I28
I47
I17
I28
I60
I53
I40
I210
I168
I46
I52
I77
I38
I83
I81
I69
I157
I57
I34
I47
I95
I35
I22
I67
I23
I167
I95
I23
I155
I137
I452
I106
I454
I862
I82
I632
I399
I75
I577
I370
I364
I39
I277
I94
I137
I77
I167
I60
I134
I108
I64
I43
I150
I60
I14
I36
I94
I59
I590
I25
I19
I34
I56
I64
I99
I78
I85
I88
I77
I21
I66
I13
I70
I77
I301
I454
I77
I328
I814
I134
I214
I96
I332
I324
I328
I896
I2948
I477
tp265
a(I18215
I47
I392
I353
I423
I93
I51
I220
I107
I90
I90
I303
I790
I223
I83
I71
I56
I90
I129
I118
I28
I276
I71
I269
I51
I30
I64
I184
I35
I91
I272
I106
I60
I42
I63
I325
I69
I77
I91
I247
I136
I64
I163
I113
I126
I30
I155
I235
I784
I73
I68
I161
I179
I660
I41
I63
I167
I183
I67
I145
I184
I239
I170
I202
I45
I92
I27
I113
I173
I171
I33
I48
I121
I47
I60
I92
I118
I53
I79
I94
I173
I76
I142
I357
I191
I179
I57
I77
I62
I282
I370
I68
I496
I234
I503
I644
I1184
I805
I320
I219
tp266
a(I18226
I325
I260
I81
I111
I19
I27
I144
I110
I145
I48
I45
I247
I389
I56
I371
I194
I106
I57
I14
I121
I39
I71
I36
I67
I119
I65
I56
I35
I49
I61
I138
I23
I45
I20
I36
I282
I50
I334
I84
I74
I163
I151
I54
I116
I270
I266
I6
I19
I50
I866
I483
I833
I23
I819
I330
I224
I79
I73
I263
I6
I255
I23
I82
I292
I170
I167
I29
I219
I247
I221
I53
I77
I5
I69
I108
I252
I309
I81
I27
I507
I177
I113
I28
I286
I99
I447
I154
I95
I498
I340
I787
I4
I726
I249
I857
I274
I390
I12
I5
tp267
a(I18215
I26
I40
I25
I276
I67
I100
I81
I33
I16
I83
I82
I97
I50
I66
I31
I13
I148
I88
I61
I35
I239
I41
I56
I153
I66
I47
I99
I172
I39
I33
I69
I118
I196
I86
I32
I251
I231
I2399
I209
I884
I153
I297
I207
I316
I186
I75
I16
I113
I260
I161
I157
I58
I33
I60
I22
I229
I133
I69
I50
I56
I76
I165
I20
I107
I232
I49
I14
I35
I17
I69
I280
I27
I56
I42
I199
I28
I22
I278
I247
I127
I375
I44
I63
I28
I26
I138
I38
I168
I367
I206
I97
I39
I329
I77
I1837
I2293
I98
I432
I159
tp268
a(I18215
I36
I83
I59
I93
I49
I23
I33
I51
I48
I52
I122
I48
I63
I281
I259
I41
I58
I51
I42
I178
I44
I30
I62
I153
I22
I52
I63
I53
I141
I74
I136
I90
I353
I319
I176
I205
I177
I99
I59
I336
I1319
I236
I122
I1535
I324
I213
I158
I171
I36
I204
I96
I178
I13
I115
I29
I71
I205
I163
I141
I70
I35
I57
I42
I25
I496
I101
I34
I237
I43
I34
I31
I20
I83
I29
I145
I42
I44
I88
I16
I43
I60
I20
I61
I291
I38
I235
I256
I254
I210
I47
I72
I125
I154
I184
I197
I492
I3559
I777
I3
tp269
a(I18217
I51
I44
I76
I192
I24
I25
I45
I34
I30
I168
I17
I248
I235
I122
I20
I33
I24
I48
I34
I314
I69
I94
I70
I72
I93
I25
I62
I132
I214
I16
I75
I51
I71
I130
I627
I359
I101
I63
I1262
I44
I1287
I200
I447
I114
I64
I120
I270
I54
I129
I12
I263
I101
I81
I53
I123
I91
I32
I47
I58
I124
I26
I350
I34
I203
I38
I77
I191
I174
I38
I23
I20
I30
I121
I39
I45
I87
I74
I12
I26
I47
I307
I85
I143
I157
I80
I200
I92
I243
I202
I320
I165
I170
I101
I181
I204
I373
I508
I2495
I1626
tp270
a(I18239
I33
I173
I12
I48
I62
I113
I99
I46
I51
I131
I68
I203
I241
I265
I19
I44
I31
I140
I112
I101
I353
I47
I45
I46
I36
I1085
I163
I49
I292
I18
I141
I23
I25
I238
I231
I811
I135
I110
I22
I5
I63
I185
I859
I313
I323
I48
I55
I20
I11
I91
I21
I137
I89
I78
I21
I14
I415
I10
I74
I51
I173
I846
I34
I72
I51
I69
I137
I82
I41
I84
I24
I80
I58
I76
I71
I47
I44
I31
I60
I118
I56
I155
I254
I160
I41
I98
I73
I92
I24
I106
I126
I372
I15
I463
I552
I1566
I309
I1800
I1164
tp271
a(I18223
I61
I117
I20
I42
I40
I15
I29
I57
I18
I157
I124
I38
I401
I30
I24
I49
I42
I70
I126
I370
I39
I30
I30
I83
I158
I249
I40
I108
I78
I207
I422
I198
I399
I36
I648
I312
I383
I193
I786
I61
I638
I154
I63
I66
I189
I142
I286
I281
I158
I176
I214
I62
I334
I173
I29
I42
I44
I55
I138
I82
I63
I30
I22
I150
I29
I119
I39
I38
I37
I18
I302
I64
I236
I120
I93
I216
I143
I143
I67
I62
I39
I74
I28
I31
I163
I106
I90
I156
I401
I106
I613
I139
I233
I192
I836
I2195
I393
I800
I183
tp272
a(I18219
I34
I63
I53
I8
I25
I100
I22
I77
I92
I106
I19
I72
I48
I14
I20
I25
I11
I91
I23
I67
I59
I213
I115
I28
I21
I69
I155
I136
I81
I60
I119
I243
I41
I98
I58
I364
I45
I358
I563
I50
I15
I5
I30
I83
I50
I354
I843
I647
I66
I139
I25
I318
I171
I473
I24
I23
I74
I166
I100
I11
I80
I10
I202
I221
I170
I33
I157
I70
I93
I114
I128
I355
I15
I94
I52
I136
I161
I143
I329
I43
I153
I64
I93
I267
I228
I103
I487
I55
I67
I95
I43
I78
I305
I165
I219
I348
I420
I280
I4850
tp273
a(I18215
I106
I56
I73
I26
I111
I22
I74
I42
I81
I43
I25
I18
I52
I37
I218
I65
I33
I282
I42
I38
I10
I51
I231
I39
I176
I36
I55
I42
I178
I322
I122
I516
I219
I6
I176
I115
I389
I899
I405
I1899
I56
I114
I471
I88
I31
I11
I6
I8
I104
I101
I166
I224
I132
I46
I30
I17
I313
I100
I169
I15
I117
I118
I59
I169
I51
I79
I108
I58
I124
I35
I10
I30
I33
I62
I181
I49
I24
I22
I198
I67
I65
I136
I165
I223
I34
I275
I63
I290
I7
I459
I153
I84
I2297
I841
I150
I553
I536
I668
I268
tp274
a(I18225
I195
I50
I220
I133
I149
I119
I41
I25
I60
I122
I81
I625
I24
I218
I32
I125
I397
I48
I41
I83
I66
I34
I119
I121
I238
I33
I21
I35
I72
I90
I15
I62
I151
I33
I71
I36
I100
I66
I198
I463
I974
I17
I206
I575
I75
I200
I796
I355
I109
I66
I27
I49
I116
I104
I292
I157
I95
I36
I52
I47
I88
I72
I156
I39
I141
I34
I29
I42
I55
I32
I27
I37
I40
I36
I34
I16
I86
I107
I28
I55
I68
I594
I157
I30
I81
I254
I43
I49
I45
I61
I62
I119
I183
I382
I215
I387
I136
I5171
I32
tp275
a(I18221
I15
I34
I36
I320
I18
I11
I16
I169
I69
I18
I85
I37
I19
I66
I11
I67
I130
I48
I80
I79
I21
I32
I21
I21
I186
I69
I390
I58
I388
I59
I265
I511
I183
I358
I13
I60
I371
I342
I583
I73
I114
I200
I272
I431
I111
I143
I138
I142
I83
I736
I190
I51
I98
I52
I133
I33
I73
I56
I160
I613
I22
I86
I71
I41
I47
I61
I115
I34
I51
I41
I25
I68
I99
I362
I196
I53
I235
I273
I45
I109
I61
I24
I40
I43
I80
I41
I41
I166
I153
I231
I329
I479
I434
I623
I1010
I566
I447
I1807
I617
tp276
a(I18271
I118
I80
I47
I32
I9
I220
I41
I57
I85
I264
I99
I279
I61
I46
I42
I135
I21
I75
I37
I86
I103
I291
I36
I37
I67
I153
I242
I143
I53
I53
I118
I1682
I554
I909
I387
I59
I1821
I77
I9
I227
I125
I172
I75
I11
I172
I51
I36
I30
I67
I243
I60
I77
I35
I38
I29
I22
I86
I18
I127
I72
I23
I32
I25
I27
I38
I16
I42
I165
I289
I93
I250
I88
I27
I20
I20
I55
I21
I59
I68
I97
I99
I383
I184
I167
I8
I338
I83
I102
I14
I486
I469
I1657
I189
I1616
I178
I184
I301
I18
I5
tp277
a(I18216
I37
I78
I205
I92
I84
I35
I133
I57
I69
I127
I106
I15
I20
I81
I20
I17
I30
I41
I39
I48
I52
I34
I205
I108
I22
I29
I30
I140
I18
I59
I17
I37
I166
I99
I16
I260
I267
I116
I146
I56
I964
I592
I95
I290
I107
I247
I56
I14
I38
I197
I1006
I447
I68
I543
I176
I110
I206
I319
I318
I51
I185
I267
I11
I163
I144
I92
I127
I16
I193
I107
I94
I24
I57
I29
I31
I46
I57
I82
I51
I49
I31
I62
I26
I237
I170
I333
I217
I73
I68
I289
I283
I14
I366
I460
I399
I671
I2353
I1156
I304
tp278
a.