(lp0
(I5294
I1
I1
I6
I1
I2
I11
I2
I1
I1
I1
I2
I11
I5
I1
I4
I13
I4
I1
I124
I57
I2
I34
I404
I143
I35
I6
I2
I87
I5
I35
I4
I10
I125
I1
I2
I3
I2
I1
I23
I11
I16
I21
I1
I46
I2
I235
I2
I2
I1
tp1
a(I5303
I1
I1
I4
I1
I4
I13
I3
I2
I3
I2
I37
I1
I3
I19
I141
I13
I8
I38
I3
I124
I1
I318
I2
I139
I6
I3
I12
I23
I1
I21
I9
I6
I2
I4
I6
I98
I2
I13
I22
I10
I23
I27
I2
I1
I1
I1
I325
I1
I1
tp2
a(I5314
I2
I5
I11
I7
I1
I4
I9
I3
I2
I3
I1
I8
I1
I4
I20
I3
I1
I3
I12
I7
I2
I11
I18
I2
I23
I13
I29
I6
I4
I16
I9
I247
I147
I3
I93
I136
I84
I41
I57
I33
I9
I11
I3
I46
I1
I332
I5
I1
I1
tp3
a(I5311
I3
I13
I1
I4
I5
I5
I35
I3
I7
I4
I2
I2
I19
I2
I3
I4
I25
I14
I4
I5
I1
I3
I8
I123
I4
I2
I7
I1
I1
I108
I3
I2
I2
I105
I9
I31
I211
I9
I167
I1
I190
I14
I1
I2
I318
I6
I1
I2
I1
tp4
a(I5313
I1
I2
I1
I7
I7
I4
I12
I4
I3
I2
I7
I8
I9
I2
I3
I1
I3
I15
I2
I16
I1
I9
I13
I7
I5
I514
I20
I25
I62
I22
I50
I11
I19
I8
I21
I15
I5
I3
I8
I14
I121
I11
I37
I1
I136
I1
I239
I2
I2
tp5
a(I5325
I1
I1
I38
I6
I12
I2
I7
I22
I3
I3
I3
I15
I2
I3
I9
I4
I23
I12
I34
I57
I164
I41
I32
I175
I7
I5
I64
I65
I81
I2
I30
I20
I19
I22
I16
I6
I73
I51
I2
I35
I1
I1
I147
I1
I97
I62
I1
I1
I1
tp6
a(I5323
I1
I59
I1
I6
I5
I2
I2
I6
I3
I10
I5
I2
I2
I24
I3
I1
I6
I3
I2
I3
I24
I22
I11
I2
I1
I5
I23
I4
I1
I4
I1
I8
I265
I40
I125
I2
I38
I217
I16
I20
I8
I40
I221
I94
I138
I1
I1
I2
I1
tp7
a(I5332
I1
I1
I11
I10
I8
I1
I1
I2
I4
I2
I1
I4
I8
I2
I10
I8
I1
I5
I3
I4
I4
I9
I9
I24
I7
I13
I6
I19
I1
I14
I34
I142
I2
I402
I48
I31
I124
I17
I31
I151
I4
I41
I5
I1
I241
I1
I1
I1
I2
tp8
a(I5325
I1
I2
I1
I13
I135
I9
I5
I2
I5
I5
I5
I2
I3
I12
I68
I27
I26
I10
I16
I2
I2
I18
I200
I54
I3
I8
I160
I83
I24
I75
I27
I12
I43
I4
I95
I2
I10
I292
I6
I1
I1
I1
I3
I1
I1
I1
I1
I1
I1
tp9
a(I5329
I1
I1
I2
I9
I11
I5
I1
I1
I1
I1
I6
I2
I1
I2
I1
I3
I12
I10
I2
I7
I2
I3
I58
I3
I14
I4
I20
I3
I11
I5
I12
I5
I40
I12
I30
I14
I4
I109
I128
I3
I296
I21
I48
I47
I9
I141
I65
I288
I1
tp10
a(I5326
I12
I10
I12
I6
I4
I8
I14
I11
I2
I4
I4
I19
I2
I3
I3
I2
I4
I3
I2
I3
I61
I12
I1
I20
I105
I7
I2
I8
I119
I266
I18
I42
I42
I26
I33
I7
I18
I26
I1
I3
I15
I5
I300
I1
I104
I1
I102
I4
I1
tp11
a(I5310
I1
I1
I1
I1
I49
I4
I4
I3
I15
I8
I5
I12
I4
I3
I3
I13
I8
I8
I3
I2
I3
I32
I1
I20
I13
I250
I59
I113
I94
I74
I2
I2
I172
I2
I36
I23
I15
I17
I11
I9
I20
I6
I4
I39
I4
I322
I1
I1
I1
tp12
a(I5310
I1
I11
I4
I2
I2
I1
I6
I2
I5
I8
I1
I1
I3
I3
I4
I5
I1
I10
I14
I3
I27
I32
I60
I10
I3
I471
I1
I28
I16
I21
I48
I102
I9
I16
I2
I36
I36
I112
I10
I5
I2
I1
I15
I1
I36
I2
I3
I301
I1
tp13
a(I5313
I13
I11
I74
I13
I23
I4
I17
I2
I5
I2
I11
I3
I7
I5
I25
I2
I13
I7
I5
I5
I2
I3
I19
I37
I18
I37
I2
I23
I3
I314
I6
I3
I67
I148
I8
I22
I22
I6
I13
I27
I30
I14
I16
I3
I2
I392
I4
I2
I1
tp14
a(I5315
I1
I1
I2
I2
I4
I10
I3
I5
I6
I3
I4
I5
I40
I3
I7
I6
I10
I2
I1
I33
I14
I3
I20
I31
I305
I129
I19
I85
I62
I18
I17
I11
I43
I11
I15
I146
I2
I40
I1
I11
I8
I19
I15
I2
I128
I1
I1
I1
I183
tp15
a(I5320
I2
I2
I1
I38
I1
I16
I11
I18
I17
I25
I7
I9
I5
I36
I30
I14
I4
I3
I5
I2
I107
I16
I13
I11
I37
I36
I22
I66
I58
I4
I18
I114
I156
I3
I5
I1
I84
I36
I4
I81
I20
I15
I2
I17
I2
I1
I307
I1
I1
tp16
a(I5300
I3
I40
I1
I1
I6
I5
I10
I23
I2
I10
I16
I3
I12
I13
I5
I8
I1
I3
I9
I1
I3
I3
I18
I18
I49
I47
I4
I15
I41
I21
I10
I2
I381
I2
I16
I201
I8
I7
I37
I131
I27
I2
I267
I11
I7
I1
I1
I1
I1
tp17
a(I5327
I2
I13
I77
I2
I5
I1
I3
I22
I1
I1
I25
I16
I6
I1
I33
I46
I15
I4
I12
I50
I2
I24
I15
I4
I9
I3
I8
I15
I15
I48
I31
I151
I12
I6
I262
I79
I16
I75
I1
I14
I6
I1
I338
I1
I1
I2
I1
I1
I1
tp18
a(I5306
I1
I1
I16
I10
I1
I4
I3
I2
I4
I2
I3
I3
I2
I1
I2
I5
I23
I4
I29
I5
I4
I3
I35
I9
I19
I16
I122
I66
I1
I3
I225
I10
I83
I173
I74
I32
I5
I4
I11
I10
I11
I23
I6
I199
I4
I192
I35
I1
I1
tp19
a(I5307
I1
I1
I1
I7
I10
I1
I5
I3
I1
I2
I3
I11
I7
I6
I10
I5
I5
I4
I1
I5
I9
I48
I35
I2
I40
I2
I23
I1
I412
I2
I142
I42
I3
I31
I44
I5
I15
I25
I12
I84
I29
I3
I29
I1
I15
I153
I2
I198
I1
tp20
a(I5307
I3
I11
I4
I2
I16
I2
I3
I5
I2
I4
I2
I2
I1
I3
I3
I3
I31
I1
I38
I1
I1
I48
I158
I2
I160
I8
I16
I14
I244
I20
I2
I14
I4
I143
I6
I29
I50
I112
I2
I1
I1
I1
I1
I2
I315
I2
I2
I1
I1
tp21
a(I5308
I1
I1
I6
I11
I1
I1
I7
I2
I3
I3
I4
I4
I6
I5
I7
I5
I5
I12
I14
I7
I36
I6
I4
I6
I454
I42
I5
I92
I18
I50
I8
I15
I5
I3
I70
I9
I67
I3
I37
I7
I37
I4
I56
I13
I2
I1
I206
I134
I1
tp22
a(I5304
I11
I5
I3
I2
I6
I2
I2
I1
I14
I3
I6
I2
I4
I8
I15
I5
I3
I5
I1
I9
I15
I12
I25
I12
I8
I13
I1
I22
I1
I3
I354
I52
I132
I47
I11
I27
I29
I35
I26
I12
I50
I191
I10
I3
I91
I1
I205
I4
I1
tp23
a(I5328
I11
I1
I1
I1
I1
I1
I1
I5
I1
I2
I6
I3
I34
I6
I5
I5
I2
I4
I9
I16
I2
I6
I8
I14
I1
I3
I1
I1
I8
I7
I283
I22
I158
I133
I14
I2
I6
I56
I12
I113
I51
I87
I28
I2
I1
I332
I2
I7
I1
tp24
a(I5300
I1
I1
I1
I2
I12
I6
I7
I8
I3
I15
I2
I3
I2
I1
I2
I9
I1
I8
I13
I18
I35
I3
I11
I1
I480
I51
I72
I117
I6
I12
I68
I3
I5
I4
I16
I12
I10
I2
I128
I6
I1
I10
I1
I1
I77
I152
I1
I85
I19
tp25
a(I5305
I5
I1
I11
I2
I2
I2
I4
I1
I1
I35
I7
I7
I1
I4
I7
I7
I1
I6
I1
I35
I70
I7
I54
I28
I18
I120
I7
I18
I382
I28
I4
I56
I12
I9
I22
I114
I12
I2
I2
I190
I1
I1
I1
I37
I124
I36
I2
I1
I1
tp26
a(I5317
I1
I1
I1
I2
I12
I7
I1
I4
I5
I4
I6
I3
I2
I5
I8
I17
I2
I4
I5
I2
I2
I11
I11
I7
I4
I9
I6
I8
I7
I49
I3
I193
I2
I241
I18
I22
I14
I53
I114
I37
I14
I49
I21
I3
I82
I70
I303
I1
I41
tp27
a(I5326
I1
I89
I1
I1
I1
I1
I25
I16
I2
I6
I21
I19
I2
I2
I38
I3
I5
I3
I12
I14
I88
I3
I58
I27
I2
I33
I1
I69
I5
I136
I159
I23
I2
I8
I26
I4
I119
I49
I40
I14
I5
I335
I2
I1
I1
I1
I1
I3
I1
tp28
a(I5310
I3
I11
I5
I12
I3
I1
I3
I3
I2
I10
I4
I13
I14
I3
I1
I4
I3
I4
I8
I7
I3
I2
I6
I30
I6
I19
I23
I330
I2
I1
I199
I72
I12
I16
I22
I11
I33
I6
I3
I6
I8
I83
I2
I3
I87
I12
I11
I371
I1
tp29
a(I5303
I6
I1
I2
I1
I13
I4
I15
I2
I4
I2
I2
I3
I1
I4
I8
I15
I10
I5
I16
I4
I3
I9
I21
I14
I1
I557
I52
I16
I35
I54
I76
I6
I5
I5
I133
I1
I1
I1
I1
I1
I1
I6
I7
I368
I4
I1
I2
I1
I1
tp30
a(I5307
I1
I69
I2
I9
I31
I14
I6
I9
I8
I5
I23
I10
I4
I2
I130
I5
I1
I3
I15
I15
I27
I15
I109
I4
I7
I8
I12
I4
I1
I1
I4
I6
I204
I18
I3
I8
I70
I11
I124
I8
I85
I1
I83
I106
I2
I203
I1
I1
I9
tp31
a(I5312
I2
I8
I5
I59
I5
I8
I5
I8
I3
I12
I25
I2
I2
I3
I133
I26
I2
I85
I9
I5
I4
I3
I20
I1
I130
I3
I4
I9
I9
I96
I31
I124
I7
I37
I22
I32
I5
I6
I75
I18
I21
I20
I67
I10
I320
I7
I2
I1
I1
tp32
a(I5306
I1
I96
I17
I16
I7
I5
I6
I6
I3
I3
I3
I21
I14
I2
I31
I80
I2
I1
I3
I13
I9
I3
I4
I20
I12
I7
I10
I9
I40
I28
I12
I34
I2
I8
I160
I44
I72
I5
I59
I170
I4
I13
I31
I30
I4
I177
I199
I1
I1
tp33
a(I5311
I1
I1
I14
I1
I4
I21
I2
I4
I2
I3
I6
I3
I4
I10
I2
I18
I12
I3
I4
I14
I1
I31
I6
I2
I2
I2
I21
I1
I87
I24
I152
I23
I8
I9
I18
I48
I126
I40
I6
I213
I3
I38
I2
I16
I66
I8
I408
I2
I1
tp34
a(I5310
I1
I5
I2
I7
I5
I4
I3
I3
I3
I12
I2
I2
I12
I6
I5
I3
I1
I10
I3
I5
I6
I11
I5
I98
I40
I54
I20
I8
I3
I16
I471
I2
I14
I39
I49
I16
I6
I21
I24
I16
I11
I10
I77
I14
I12
I1
I1
I349
I6
tp35
a(I5318
I3
I1
I1
I3
I2
I2
I2
I1
I4
I2
I7
I4
I7
I4
I1
I8
I8
I1
I18
I117
I83
I1
I8
I404
I19
I4
I11
I48
I44
I5
I87
I5
I5
I129
I3
I3
I39
I28
I3
I3
I8
I2
I1
I161
I1
I138
I24
I22
I1
tp36
a(I5316
I1
I1
I1
I12
I50
I16
I5
I5
I14
I37
I3
I5
I2
I3
I149
I2
I53
I3
I3
I3
I2
I10
I8
I5
I8
I77
I2
I12
I4
I2
I121
I15
I10
I237
I15
I1
I127
I30
I4
I6
I36
I8
I17
I24
I14
I321
I1
I1
I2
tp37
a(I5329
I1
I1
I2
I2
I1
I1
I2
I1
I8
I11
I1
I1
I2
I8
I6
I2
I17
I2
I13
I6
I6
I23
I5
I15
I2
I7
I11
I1
I2
I1
I24
I24
I6
I1
I23
I291
I2
I389
I24
I5
I15
I26
I13
I62
I2
I401
I3
I2
I1
tp38
a(I5309
I7
I2
I8
I3
I2
I3
I3
I11
I2
I2
I6
I4
I9
I3
I5
I10
I2
I5
I5
I2
I2
I1
I11
I127
I467
I81
I124
I10
I7
I12
I14
I13
I3
I2
I6
I5
I4
I8
I15
I95
I81
I25
I2
I1
I1
I4
I1
I278
I1
tp39
a(I5307
I1
I1
I32
I3
I12
I1
I3
I4
I2
I8
I2
I3
I14
I4
I11
I11
I17
I46
I3
I2
I22
I25
I4
I27
I18
I13
I1
I8
I16
I46
I1
I185
I7
I34
I8
I294
I42
I15
I19
I75
I1
I1
I33
I196
I11
I82
I57
I75
I1
tp40
a(I5315
I15
I1
I9
I1
I25
I5
I9
I11
I15
I2
I2
I2
I25
I18
I2
I40
I13
I23
I24
I2
I4
I6
I2
I95
I3
I2
I24
I15
I21
I2
I47
I18
I44
I406
I31
I3
I18
I47
I12
I112
I4
I4
I4
I1
I2
I314
I2
I1
I1
tp41
a(I5302
I1
I4
I5
I2
I4
I3
I2
I3
I2
I4
I3
I3
I11
I2
I10
I1
I18
I28
I34
I14
I4
I5
I1
I5
I17
I2
I8
I6
I302
I11
I209
I1
I39
I10
I5
I146
I36
I9
I6
I7
I33
I15
I56
I70
I10
I207
I3
I95
I30
tp42
a(I5302
I11
I3
I2
I1
I1
I9
I5
I4
I4
I2
I1
I6
I2
I5
I18
I3
I6
I4
I2
I2
I2
I4
I2
I258
I8
I5
I38
I75
I93
I1
I262
I30
I3
I4
I6
I4
I44
I8
I32
I19
I1
I30
I1
I20
I188
I22
I5
I245
I1
tp43
a(I5318
I1
I1
I11
I4
I3
I6
I6
I2
I1
I7
I1
I6
I3
I2
I4
I5
I63
I47
I2
I18
I96
I1
I1
I263
I112
I59
I1
I5
I128
I41
I12
I6
I42
I16
I4
I45
I4
I5
I3
I2
I1
I16
I1
I242
I2
I1
I4
I178
I2
tp44
a(I5297
I1
I4
I3
I3
I3
I4
I5
I2
I2
I7
I11
I1
I5
I16
I2
I6
I7
I2
I20
I25
I15
I5
I7
I335
I3
I249
I7
I46
I122
I3
I18
I7
I5
I4
I4
I3
I138
I5
I23
I2
I1
I12
I1
I2
I1
I53
I305
I1
I1
tp45
a(I5304
I1
I4
I4
I13
I5
I11
I11
I2
I8
I2
I4
I3
I1
I2
I9
I4
I17
I3
I6
I39
I1
I2
I52
I38
I312
I206
I21
I11
I22
I18
I4
I12
I9
I56
I50
I6
I2
I5
I2
I2
I20
I22
I12
I191
I1
I1
I1
I271
I1
tp46
a(I5314
I1
I1
I5
I2
I11
I3
I6
I1
I3
I2
I2
I4
I3
I4
I2
I5
I4
I7
I6
I5
I1
I12
I13
I3
I9
I32
I30
I2
I2
I185
I104
I27
I244
I56
I75
I14
I31
I94
I64
I6
I2
I10
I87
I81
I1
I127
I98
I2
I1
tp47
a(I5305
I1
I3
I2
I11
I3
I5
I2
I2
I2
I8
I4
I7
I7
I1
I1
I9
I29
I1
I1
I2
I12
I361
I5
I39
I140
I46
I12
I13
I41
I24
I10
I3
I4
I37
I46
I36
I6
I31
I5
I15
I4
I130
I1
I131
I9
I163
I71
I2
I1
tp48
a(I5325
I2
I10
I12
I1
I31
I3
I2
I1
I2
I9
I5
I3
I2
I2
I2
I2
I23
I7
I2
I2
I3
I3
I50
I15
I12
I3
I23
I4
I3
I99
I6
I5
I1
I8
I88
I278
I44
I203
I82
I1
I13
I70
I33
I51
I13
I4
I237
I3
I1
tp49
a(I5339
I3
I1
I1
I2
I3
I9
I1
I6
I3
I2
I2
I3
I3
I9
I2
I4
I5
I2
I3
I9
I11
I3
I10
I3
I14
I8
I11
I27
I102
I3
I2
I524
I37
I20
I148
I6
I5
I2
I25
I11
I52
I135
I13
I1
I1
I2
I214
I1
I1
tp50
a(I5326
I2
I1
I17
I1
I1
I4
I7
I4
I1
I2
I9
I2
I3
I13
I6
I5
I33
I5
I4
I2
I10
I2
I22
I7
I90
I15
I7
I44
I16
I15
I9
I10
I26
I5
I36
I194
I103
I52
I15
I114
I20
I79
I42
I217
I2
I3
I3
I5
I193
tp51
a(I5306
I1
I2
I1
I2
I5
I48
I2
I21
I5
I16
I14
I5
I6
I9
I29
I10
I8
I11
I8
I7
I3
I56
I7
I45
I2
I4
I17
I116
I42
I8
I37
I5
I33
I3
I137
I45
I71
I3
I56
I9
I107
I10
I104
I12
I44
I308
I2
I1
I1
tp52
a(I5311
I1
I1
I1
I1
I4
I22
I14
I13
I2
I2
I1
I8
I3
I5
I10
I6
I8
I5
I5
I1
I11
I2
I25
I5
I20
I1
I5
I8
I244
I183
I3
I155
I100
I41
I20
I7
I36
I11
I3
I7
I8
I28
I14
I101
I2
I1
I2
I336
I1
tp53
a(I5319
I10
I1
I5
I12
I1
I6
I8
I2
I1
I4
I4
I1
I2
I4
I2
I23
I10
I2
I5
I3
I38
I16
I13
I29
I2
I18
I6
I1
I6
I22
I3
I13
I1
I50
I32
I1
I273
I34
I93
I201
I8
I14
I14
I80
I11
I1
I396
I1
I2
tp54
a(I5326
I3
I51
I5
I3
I16
I8
I6
I49
I29
I3
I6
I6
I5
I26
I24
I3
I3
I4
I2
I2
I8
I40
I4
I95
I1
I40
I2
I32
I23
I15
I161
I3
I2
I76
I56
I47
I5
I12
I100
I42
I64
I19
I109
I2
I260
I2
I2
I1
I1
tp55
a(I5328
I2
I24
I7
I57
I10
I14
I9
I3
I3
I27
I14
I3
I4
I14
I11
I3
I7
I23
I2
I22
I18
I2
I35
I26
I15
I28
I3
I4
I15
I1
I7
I122
I127
I2
I109
I4
I36
I12
I126
I20
I90
I28
I12
I11
I59
I2
I301
I1
I1
tp56
a(I5305
I1
I2
I2
I2
I12
I2
I2
I4
I2
I2
I2
I3
I1
I1
I1
I3
I2
I5
I1
I2
I3
I1
I6
I22
I19
I13
I24
I1
I27
I283
I10
I175
I28
I5
I158
I64
I11
I3
I23
I18
I18
I42
I81
I99
I28
I1
I51
I232
I1
tp57
a(I5307
I1
I1
I1
I6
I6
I2
I8
I6
I2
I11
I2
I5
I3
I1
I3
I7
I4
I4
I7
I5
I13
I2
I1
I7
I2
I1
I4
I14
I14
I22
I407
I1
I1
I4
I175
I26
I50
I45
I11
I37
I5
I147
I9
I19
I385
I1
I6
I1
I2
tp58
a(I5318
I1
I1
I1
I56
I3
I13
I8
I2
I14
I1
I7
I3
I2
I25
I6
I6
I11
I12
I7
I7
I3
I7
I17
I21
I18
I2
I29
I247
I12
I17
I28
I119
I73
I18
I29
I5
I19
I98
I44
I27
I20
I35
I23
I9
I126
I20
I1
I232
I1
tp59
a(I5324
I7
I1
I1
I1
I3
I4
I3
I5
I6
I8
I6
I1
I2
I3
I5
I14
I11
I2
I1
I5
I4
I2
I2
I21
I10
I63
I1
I11
I6
I23
I2
I5
I3
I2
I7
I48
I6
I12
I296
I73
I231
I43
I20
I52
I9
I36
I77
I19
I307
tp60
a(I5311
I1
I1
I2
I1
I18
I4
I41
I10
I10
I2
I4
I5
I6
I7
I13
I8
I2
I33
I21
I12
I2
I5
I14
I11
I8
I11
I30
I11
I15
I21
I15
I7
I237
I119
I26
I3
I99
I12
I20
I177
I13
I110
I307
I14
I1
I1
I1
I1
I1
tp61
a(I5321
I1
I1
I1
I3
I5
I1
I4
I3
I4
I4
I2
I4
I10
I11
I1
I6
I4
I5
I5
I1
I33
I4
I3
I12
I1
I18
I9
I23
I71
I193
I23
I5
I205
I57
I6
I10
I4
I8
I34
I7
I163
I37
I24
I11
I1
I18
I38
I197
I192
tp62
a(I5314
I1
I1
I17
I11
I4
I3
I3
I2
I3
I13
I2
I1
I6
I5
I2
I4
I4
I5
I1
I13
I1
I2
I3
I9
I1
I69
I14
I335
I1
I8
I17
I78
I6
I3
I8
I7
I149
I8
I6
I12
I35
I11
I4
I108
I56
I124
I1
I312
I1
tp63
a(I5310
I1
I63
I1
I1
I19
I15
I7
I4
I3
I23
I28
I2
I2
I7
I2
I5
I3
I2
I15
I16
I19
I3
I97
I50
I4
I9
I34
I8
I10
I7
I2
I1
I367
I4
I5
I16
I10
I185
I21
I23
I12
I43
I38
I5
I297
I1
I2
I1
I1
tp64
a(I5321
I1
I12
I57
I2
I8
I9
I4
I9
I7
I11
I41
I12
I7
I20
I4
I3
I1
I3
I16
I70
I3
I1
I4
I2
I21
I127
I9
I2
I8
I38
I194
I19
I31
I4
I10
I181
I106
I32
I5
I10
I30
I87
I2
I251
I1
I1
I2
I4
I1
tp65
a(I5310
I1
I6
I25
I4
I4
I14
I55
I1
I4
I3
I3
I5
I3
I2
I13
I3
I5
I6
I10
I3
I2
I2
I21
I3
I15
I19
I22
I38
I2
I5
I50
I24
I74
I1
I92
I2
I218
I109
I59
I26
I16
I27
I4
I68
I107
I315
I1
I1
I1
tp66
a(I5298
I6
I1
I5
I3
I8
I1
I3
I3
I11
I1
I1
I6
I6
I3
I7
I2
I6
I6
I3
I5
I24
I3
I3
I1
I1
I2
I7
I1
I21
I175
I13
I57
I3
I37
I2
I378
I4
I46
I13
I11
I7
I5
I5
I3
I292
I24
I2
I1
I278
tp67
a(I5297
I1
I6
I3
I2
I2
I2
I12
I2
I2
I7
I5
I5
I11
I3
I7
I7
I1
I1
I96
I81
I7
I65
I1
I43
I1
I336
I14
I17
I52
I29
I41
I7
I11
I19
I11
I56
I20
I10
I3
I5
I8
I3
I325
I1
I1
I1
I1
I162
I1
tp68
a(I5314
I1
I13
I12
I1
I71
I19
I4
I7
I15
I2
I4
I29
I6
I1
I6
I7
I3
I18
I3
I3
I15
I19
I2
I18
I19
I1
I3
I15
I5
I2
I3
I66
I68
I85
I37
I88
I160
I57
I59
I36
I20
I273
I3
I1
I76
I120
I11
I2
I1
tp69
a(I5321
I1
I1
I11
I7
I1
I2
I8
I4
I3
I1
I4
I13
I4
I2
I3
I8
I5
I10
I2
I12
I5
I2
I14
I10
I2
I57
I29
I195
I2
I264
I98
I2
I12
I15
I26
I41
I21
I63
I8
I72
I21
I19
I3
I2
I35
I53
I1
I307
I2
tp70
a(I5299
I1
I12
I1
I6
I7
I1
I9
I10
I2
I1
I3
I4
I11
I5
I5
I4
I1
I10
I2
I17
I4
I24
I2
I3
I2
I41
I5
I36
I34
I89
I3
I408
I5
I152
I1
I13
I59
I67
I25
I5
I1
I1
I137
I1
I139
I3
I129
I3
I1
tp71
a(I5304
I1
I1
I11
I13
I5
I64
I20
I52
I24
I2
I20
I2
I2
I3
I2
I2
I8
I54
I2
I23
I18
I110
I1
I5
I6
I14
I25
I68
I27
I10
I3
I70
I32
I52
I52
I152
I19
I18
I25
I5
I87
I2
I96
I45
I217
I19
I9
I1
I1
tp72
a(I5324
I1
I2
I1
I7
I39
I6
I1
I1
I18
I6
I4
I4
I10
I3
I3
I6
I3
I25
I7
I45
I11
I30
I9
I8
I5
I4
I8
I6
I5
I22
I20
I1
I3
I522
I3
I8
I80
I158
I185
I1
I136
I1
I29
I28
I1
I1
I1
I1
I1
tp73
a(I5314
I1
I2
I1
I1
I4
I8
I8
I9
I2
I4
I4
I4
I13
I1
I2
I1
I3
I4
I5
I7
I3
I2
I22
I24
I65
I45
I47
I1
I122
I18
I299
I20
I104
I4
I41
I14
I15
I4
I19
I5
I17
I8
I181
I71
I1
I4
I248
I1
I1
tp74
a(I5319
I1
I1
I5
I2
I11
I2
I9
I5
I9
I1
I4
I5
I1
I5
I11
I5
I2
I10
I5
I7
I5
I3
I25
I28
I25
I45
I26
I1
I174
I15
I4
I228
I12
I54
I53
I6
I21
I11
I16
I4
I89
I118
I6
I4
I76
I1
I332
I1
I1
tp75
a(I5308
I3
I1
I34
I3
I8
I2
I12
I2
I2
I2
I2
I3
I2
I7
I6
I3
I16
I6
I3
I6
I17
I19
I1
I14
I9
I1
I65
I170
I27
I375
I3
I56
I9
I19
I50
I6
I4
I3
I56
I7
I7
I70
I25
I25
I1
I1
I331
I1
I1
tp76
a(I5299
I1
I10
I2
I4
I21
I1
I2
I10
I2
I3
I3
I6
I8
I2
I4
I3
I3
I26
I3
I2
I6
I1
I18
I7
I5
I22
I14
I103
I18
I23
I501
I17
I12
I8
I14
I6
I5
I51
I7
I75
I54
I21
I8
I2
I73
I255
I1
I1
I61
tp77
a(I5311
I1
I46
I4
I1
I6
I4
I27
I4
I3
I3
I4
I12
I4
I101
I8
I95
I10
I9
I1
I7
I3
I6
I6
I2
I46
I3
I4
I17
I43
I23
I140
I28
I39
I2
I37
I114
I5
I1
I176
I7
I4
I33
I62
I16
I10
I3
I311
I1
I1
tp78
a(I5311
I1
I1
I1
I22
I9
I49
I4
I21
I7
I1
I3
I5
I8
I11
I9
I6
I4
I13
I3
I71
I8
I23
I38
I3
I9
I21
I1
I10
I50
I44
I44
I402
I5
I13
I22
I76
I8
I37
I1
I5
I222
I2
I8
I184
I1
I1
I1
I4
I1
tp79
a(I5307
I3
I1
I1
I60
I10
I5
I4
I10
I3
I19
I2
I4
I9
I43
I10
I4
I8
I2
I40
I3
I2
I4
I9
I15
I3
I9
I23
I45
I2
I20
I27
I34
I2
I21
I51
I22
I274
I142
I7
I2
I11
I9
I62
I3
I40
I387
I4
I2
I24
tp80
a(I5340
I1
I2
I1
I11
I5
I2
I4
I2
I17
I2
I3
I21
I7
I1
I19
I21
I14
I7
I5
I17
I37
I25
I15
I2
I7
I4
I134
I24
I2
I14
I21
I72
I121
I223
I68
I9
I5
I26
I158
I9
I8
I10
I23
I279
I2
I1
I1
I1
I1
tp81
a(I5309
I2
I14
I11
I4
I2
I4
I3
I2
I7
I3
I3
I2
I2
I4
I5
I3
I13
I2
I4
I9
I2
I20
I21
I13
I4
I12
I460
I184
I5
I37
I1
I12
I18
I5
I32
I29
I7
I4
I8
I133
I51
I1
I22
I1
I24
I3
I28
I5
I254
tp82
a(I5312
I1
I1
I5
I11
I5
I25
I8
I3
I8
I2
I3
I4
I3
I4
I11
I4
I4
I3
I9
I21
I14
I6
I9
I7
I1
I2
I47
I383
I97
I74
I37
I20
I31
I10
I6
I38
I2
I8
I4
I111
I38
I10
I17
I16
I1
I325
I1
I39
I3
tp83
a(I5309
I2
I5
I3
I3
I4
I7
I11
I2
I2
I1
I3
I4
I3
I4
I5
I15
I2
I2
I21
I7
I2
I2
I27
I15
I14
I2
I6
I20
I453
I76
I118
I32
I5
I19
I33
I24
I32
I28
I23
I24
I13
I33
I1
I133
I1
I1
I250
I1
I1
tp84
a(I5324
I1
I4
I11
I1
I11
I9
I2
I2
I3
I3
I4
I2
I8
I3
I15
I1
I28
I1
I4
I4
I26
I4
I4
I34
I118
I3
I26
I215
I16
I92
I44
I13
I161
I4
I29
I6
I6
I108
I6
I6
I55
I2
I6
I2
I6
I367
I2
I1
I1
tp85
a(I5314
I1
I2
I4
I1
I1
I4
I2
I6
I2
I21
I9
I2
I3
I2
I2
I18
I22
I5
I2
I5
I12
I25
I12
I33
I12
I18
I488
I2
I1
I82
I18
I162
I34
I26
I27
I21
I5
I4
I47
I5
I3
I1
I325
I1
I3
I1
I3
I1
I4
tp86
a(I5316
I32
I1
I6
I7
I5
I4
I1
I14
I12
I3
I1
I2
I4
I3
I1
I4
I3
I21
I6
I39
I6
I35
I24
I2
I35
I7
I6
I18
I310
I28
I2
I293
I18
I16
I53
I4
I8
I14
I16
I6
I15
I17
I19
I18
I48
I1
I298
I1
I1
tp87
a(I5309
I11
I5
I2
I1
I8
I1
I5
I1
I3
I2
I5
I4
I2
I3
I5
I1
I7
I2
I2
I3
I2
I7
I11
I15
I13
I2
I9
I3
I10
I33
I103
I4
I27
I39
I353
I85
I37
I82
I11
I12
I28
I50
I15
I12
I1
I224
I11
I162
I61
tp88
a(I5320
I1
I1
I9
I8
I5
I9
I1
I4
I11
I2
I14
I2
I47
I3
I1
I4
I36
I7
I2
I3
I20
I2
I12
I3
I19
I17
I1
I17
I1
I12
I85
I18
I12
I39
I297
I2
I21
I2
I154
I34
I19
I90
I55
I1
I35
I343
I1
I1
I1
tp89
a(I5304
I5
I2
I1
I5
I3
I4
I8
I4
I3
I2
I1
I15
I5
I5
I2
I3
I6
I2
I5
I3
I6
I4
I1
I7
I4
I415
I24
I292
I6
I16
I7
I47
I8
I6
I3
I25
I13
I44
I5
I13
I9
I10
I131
I7
I1
I23
I284
I4
I1
tp90
a(I5310
I1
I11
I1
I1
I6
I3
I27
I2
I3
I17
I4
I5
I7
I4
I3
I3
I4
I9
I2
I8
I8
I19
I2
I7
I7
I14
I11
I33
I62
I8
I7
I1
I5
I281
I10
I6
I110
I18
I6
I21
I174
I5
I15
I61
I230
I37
I213
I1
I1
tp91
a(I5319
I1
I1
I6
I14
I1
I11
I3
I3
I3
I4
I2
I4
I8
I4
I11
I2
I2
I2
I3
I13
I3
I7
I43
I17
I2
I20
I16
I8
I30
I17
I65
I399
I80
I78
I15
I8
I16
I32
I21
I12
I60
I15
I23
I72
I1
I2
I323
I1
I1
tp92
a(I5320
I1
I2
I1
I1
I1
I5
I44
I1
I5
I12
I2
I6
I3
I2
I17
I2
I20
I8
I5
I33
I6
I2
I14
I18
I9
I20
I34
I70
I1
I14
I7
I3
I114
I14
I188
I69
I208
I56
I2
I112
I162
I2
I126
I54
I4
I1
I1
I1
I1
tp93
a(I5305
I4
I3
I11
I2
I4
I2
I1
I7
I8
I1
I3
I5
I1
I7
I1
I4
I12
I44
I2
I100
I8
I13
I3
I268
I49
I43
I1
I55
I13
I21
I9
I97
I14
I24
I2
I15
I41
I4
I3
I47
I51
I9
I146
I1
I42
I15
I2
I280
I1
tp94
a(I5319
I2
I7
I5
I24
I3
I23
I14
I15
I6
I4
I6
I5
I1
I3
I5
I9
I5
I19
I14
I1
I24
I3
I18
I19
I1
I7
I13
I6
I6
I19
I3
I4
I49
I9
I35
I23
I279
I39
I166
I7
I7
I28
I59
I8
I69
I71
I2
I14
I326
tp95
a(I5325
I1
I1
I2
I16
I13
I3
I1
I1
I1
I9
I14
I8
I5
I19
I5
I20
I3
I3
I2
I13
I113
I15
I22
I8
I6
I2
I73
I10
I13
I10
I4
I55
I48
I341
I22
I5
I72
I10
I23
I86
I20
I14
I3
I12
I138
I40
I3
I170
I1
tp96
a(I5314
I1
I1
I127
I6
I6
I6
I3
I12
I1
I3
I10
I19
I9
I40
I4
I15
I3
I15
I10
I31
I16
I3
I2
I10
I4
I16
I6
I2
I125
I5
I50
I111
I151
I15
I11
I64
I42
I57
I3
I110
I41
I312
I1
I5
I1
I2
I1
I1
I1
tp97
a(I5322
I1
I3
I5
I21
I1
I3
I15
I1
I22
I29
I10
I6
I5
I4
I16
I2
I8
I2
I15
I5
I65
I14
I5
I18
I4
I15
I3
I1
I5
I15
I5
I120
I86
I55
I10
I24
I32
I142
I29
I75
I56
I20
I9
I101
I175
I2
I219
I2
I1
tp98
a(I5341
I1
I7
I10
I10
I59
I7
I2
I9
I3
I3
I4
I35
I15
I2
I4
I11
I7
I3
I10
I62
I18
I4
I18
I42
I5
I28
I3
I202
I24
I3
I22
I277
I3
I33
I11
I18
I11
I1
I85
I32
I27
I1
I324
I1
I1
I1
I1
I2
I1
tp99
a(I5314
I4
I1
I2
I4
I5
I1
I2
I9
I1
I5
I5
I24
I5
I7
I1
I1
I6
I7
I12
I15
I1
I17
I4
I2
I11
I3
I151
I1
I26
I244
I6
I1
I180
I25
I2
I36
I4
I43
I21
I52
I5
I18
I7
I91
I25
I5
I131
I258
I3
tp100
a(I5320
I1
I1
I1
I10
I8
I1
I5
I5
I2
I4
I3
I8
I2
I6
I2
I12
I8
I5
I13
I2
I20
I30
I5
I19
I5
I239
I3
I145
I122
I2
I24
I9
I47
I19
I13
I32
I79
I8
I77
I114
I36
I1
I140
I6
I1
I2
I3
I183
I1
tp101
a(I5298
I1
I4
I2
I2
I1
I2
I2
I9
I3
I9
I11
I4
I4
I7
I9
I5
I2
I5
I3
I9
I130
I115
I1
I1
I113
I1
I159
I3
I8
I154
I14
I36
I3
I5
I62
I39
I32
I10
I14
I10
I6
I168
I9
I1
I159
I156
I1
I1
I1
tp102
a(I5291
I1
I65
I2
I7
I4
I13
I1
I5
I10
I2
I5
I3
I3
I2
I54
I3
I6
I3
I14
I9
I4
I25
I63
I30
I12
I6
I3
I7
I25
I5
I64
I5
I3
I2
I160
I1
I16
I10
I5
I185
I50
I58
I86
I19
I18
I61
I120
I257
I1
tp103
a(I5303
I1
I1
I4
I12
I2
I2
I3
I2
I2
I3
I22
I1
I1
I4
I2
I3
I7
I2
I2
I17
I9
I3
I29
I11
I39
I6
I5
I31
I6
I459
I12
I34
I43
I37
I147
I8
I20
I7
I41
I70
I78
I1
I1
I2
I10
I2
I295
I1
I1
tp104
a(I5307
I7
I87
I2
I1
I1
I1
I6
I9
I6
I14
I12
I2
I3
I6
I14
I6
I8
I5
I2
I6
I11
I10
I12
I12
I3
I28
I5
I41
I5
I5
I4
I6
I1
I33
I5
I2
I62
I5
I265
I110
I108
I17
I6
I239
I44
I25
I141
I93
I1
tp105
a(I5328
I10
I5
I4
I1
I8
I4
I11
I4
I11
I5
I12
I1
I2
I5
I3
I7
I5
I5
I22
I9
I4
I12
I16
I71
I7
I1
I1
I7
I5
I2
I1
I7
I319
I19
I93
I90
I42
I64
I20
I11
I7
I15
I35
I46
I20
I206
I217
I3
I1
tp106
a(I5302
I1
I3
I2
I1
I1
I2
I2
I3
I6
I12
I4
I4
I2
I7
I6
I8
I3
I5
I14
I10
I7
I1
I46
I5
I318
I6
I290
I9
I45
I37
I6
I8
I3
I58
I4
I4
I3
I100
I9
I11
I67
I9
I70
I1
I1
I1
I285
I1
I1
tp107
a(I5311
I1
I1
I1
I8
I13
I5
I2
I1
I2
I10
I9
I4
I5
I2
I12
I2
I5
I18
I2
I5
I3
I13
I7
I8
I1
I74
I2
I7
I6
I24
I1
I42
I128
I6
I28
I271
I13
I12
I202
I1
I15
I9
I104
I4
I396
I2
I3
I2
I1
tp108
a(I5317
I1
I1
I1
I51
I4
I6
I4
I2
I4
I2
I5
I1
I18
I12
I8
I12
I25
I2
I10
I26
I2
I2
I1
I2
I14
I125
I3
I5
I67
I1
I3
I3
I55
I31
I77
I3
I40
I336
I18
I6
I130
I36
I65
I144
I115
I2
I1
I1
I4
tp109
a(I5337
I1
I1
I3
I2
I23
I12
I3
I3
I8
I2
I3
I2
I13
I11
I17
I5
I22
I4
I8
I4
I8
I13
I20
I3
I26
I13
I35
I7
I44
I123
I1
I2
I215
I36
I1
I36
I44
I61
I19
I38
I15
I171
I5
I5
I174
I1
I168
I35
I1
tp110
a(I5313
I1
I4
I64
I7
I4
I9
I4
I1
I3
I5
I14
I2
I9
I8
I1
I2
I2
I26
I2
I4
I4
I9
I57
I8
I9
I9
I19
I24
I40
I79
I216
I164
I4
I129
I1
I16
I12
I124
I8
I28
I8
I7
I21
I18
I62
I2
I141
I99
I1
tp111
a(I5308
I5
I5
I5
I2
I7
I3
I3
I3
I4
I2
I3
I2
I2
I6
I1
I2
I3
I3
I1
I3
I3
I6
I5
I1
I5
I13
I19
I4
I1
I1
I2
I1
I18
I379
I1
I277
I9
I92
I12
I59
I12
I11
I4
I32
I22
I3
I1
I65
I373
tp112
a(I5332
I40
I1
I1
I1
I4
I7
I5
I9
I1
I8
I19
I7
I14
I11
I32
I2
I14
I9
I8
I3
I3
I5
I14
I3
I31
I10
I18
I27
I12
I17
I19
I18
I1
I3
I21
I1
I316
I21
I105
I4
I15
I100
I9
I64
I10
I1
I425
I2
I1
tp113
a(I5324
I1
I1
I14
I7
I5
I6
I90
I10
I1
I18
I22
I1
I3
I1
I2
I77
I36
I2
I11
I2
I14
I3
I11
I18
I5
I9
I8
I88
I10
I100
I2
I41
I2
I88
I134
I35
I9
I113
I10
I7
I20
I109
I38
I52
I3
I238
I1
I1
I1
tp114
a(I5321
I11
I4
I1
I2
I3
I3
I1
I12
I2
I2
I4
I4
I3
I3
I3
I8
I2
I1
I2
I1
I5
I13
I11
I5
I11
I1
I6
I44
I15
I10
I18
I19
I2
I36
I20
I299
I8
I115
I24
I20
I4
I3
I345
I3
I47
I323
I1
I2
I1
tp115
a(I5297
I1
I5
I1
I93
I38
I10
I6
I22
I37
I3
I7
I14
I11
I15
I101
I3
I2
I3
I18
I2
I4
I169
I24
I28
I4
I62
I5
I68
I55
I47
I47
I56
I156
I110
I2
I1
I10
I10
I1
I220
I12
I5
I9
I1
I1
I2
I2
I2
I2
tp116
a(I5323
I1
I18
I2
I7
I3
I10
I6
I3
I2
I7
I10
I7
I4
I3
I5
I6
I12
I2
I2
I7
I2
I111
I52
I53
I74
I101
I85
I9
I4
I138
I55
I15
I12
I86
I8
I4
I128
I6
I39
I48
I2
I2
I2
I321
I1
I1
I1
I3
I1
tp117
a(I5335
I1
I1
I1
I2
I1
I5
I13
I258
I12
I10
I25
I1
I4
I15
I4
I3
I3
I2
I1
I137
I3
I6
I16
I67
I5
I26
I5
I14
I64
I9
I3
I18
I3
I257
I70
I1
I31
I62
I28
I1
I1
I15
I9
I250
I1
I1
I2
I1
I1
tp118
a(I5307
I1
I1
I8
I7
I3
I5
I11
I11
I6
I10
I4
I7
I3
I24
I3
I31
I2
I16
I4
I3
I5
I6
I3
I46
I12
I11
I3
I16
I4
I5
I1
I21
I2
I1
I299
I203
I23
I13
I97
I49
I15
I18
I163
I1
I294
I1
I1
I23
I1
tp119
a(I5318
I2
I3
I25
I2
I3
I8
I4
I7
I11
I2
I6
I15
I4
I2
I3
I5
I38
I6
I31
I7
I23
I47
I5
I1
I5
I78
I358
I2
I32
I6
I138
I3
I47
I7
I12
I9
I11
I19
I52
I3
I23
I55
I16
I1
I338
I8
I1
I1
I1
tp120
a(I5326
I1
I4
I4
I3
I1
I2
I11
I21
I6
I2
I2
I2
I2
I2
I8
I22
I1
I4
I4
I3
I4
I10
I9
I3
I3
I13
I21
I86
I25
I33
I190
I194
I75
I10
I40
I29
I105
I132
I19
I38
I41
I1
I1
I274
I12
I2
I1
I1
I1
tp121
a(I5292
I1
I6
I157
I7
I16
I12
I4
I4
I2
I21
I3
I4
I5
I41
I2
I3
I2
I12
I6
I25
I2
I15
I8
I3
I34
I69
I5
I6
I2
I17
I155
I3
I60
I297
I18
I26
I57
I28
I172
I1
I141
I28
I14
I1
I1
I5
I8
I2
I1
tp122
a(I5308
I1
I1
I3
I4
I1
I3
I4
I2
I2
I5
I14
I9
I2
I9
I4
I18
I15
I1
I19
I6
I10
I2
I1
I1
I12
I9
I43
I8
I44
I10
I84
I1
I47
I182
I116
I44
I129
I4
I3
I12
I23
I36
I68
I1
I1
I127
I91
I2
I262
tp123
a(I5306
I5
I2
I4
I2
I2
I5
I2
I11
I15
I5
I3
I3
I2
I2
I8
I3
I4
I14
I4
I6
I9
I3
I8
I6
I40
I58
I10
I6
I24
I5
I138
I164
I2
I73
I215
I17
I12
I13
I28
I87
I16
I6
I17
I27
I62
I29
I2
I90
I229
tp124
a(I5297
I2
I4
I2
I2
I10
I4
I11
I4
I2
I2
I2
I7
I2
I4
I8
I20
I5
I2
I9
I74
I5
I86
I1
I2
I18
I27
I9
I2
I403
I27
I84
I20
I41
I27
I21
I7
I81
I7
I37
I8
I4
I91
I18
I1
I73
I228
I1
I1
I1
tp125
a(I5329
I1
I55
I1
I5
I25
I1
I1
I7
I3
I19
I2
I5
I12
I10
I32
I45
I8
I3
I9
I22
I2
I35
I3
I2
I38
I2
I4
I2
I3
I34
I2
I81
I2
I4
I41
I13
I64
I3
I287
I133
I56
I88
I21
I7
I206
I3
I70
I2
I1
tp126
a(I5312
I3
I18
I12
I2
I10
I6
I5
I4
I4
I56
I1
I3
I4
I5
I3
I3
I7
I44
I5
I3
I7
I13
I3
I7
I16
I5
I10
I29
I31
I17
I26
I118
I7
I132
I5
I138
I2
I5
I42
I116
I23
I6
I19
I184
I1
I217
I113
I1
I1
tp127
a(I5304
I1
I1
I2
I20
I13
I3
I2
I2
I3
I11
I4
I2
I4
I4
I4
I8
I1
I1
I15
I12
I3
I15
I1
I91
I41
I82
I106
I276
I49
I14
I44
I21
I14
I6
I79
I9
I10
I44
I25
I6
I11
I21
I150
I30
I150
I2
I1
I85
I1
tp128
a(I5298
I1
I2
I2
I1
I1
I5
I2
I2
I10
I1
I4
I2
I5
I1
I2
I2
I11
I24
I16
I1
I6
I9
I1
I43
I53
I1
I260
I375
I11
I19
I17
I4
I4
I8
I33
I2
I17
I18
I7
I156
I6
I17
I7
I1
I2
I1
I1
I330
I2
tp129
a(I5305
I4
I24
I3
I14
I1
I5
I16
I2
I2
I3
I5
I11
I5
I3
I7
I3
I12
I24
I39
I3
I18
I16
I23
I5
I1
I15
I42
I1
I1
I19
I313
I6
I106
I70
I58
I7
I17
I7
I4
I38
I6
I8
I38
I4
I65
I2
I416
I6
I1
tp130
a(I5325
I4
I2
I11
I37
I3
I3
I5
I4
I3
I7
I2
I4
I3
I10
I7
I2
I6
I3
I7
I5
I19
I21
I13
I233
I145
I76
I101
I4
I24
I10
I23
I76
I27
I4
I85
I4
I13
I78
I10
I39
I2
I58
I21
I1
I1
I128
I132
I2
I1
tp131
a(I5318
I3
I3
I1
I5
I1
I4
I8
I1
I2
I1
I3
I5
I12
I8
I3
I2
I3
I4
I4
I17
I4
I4
I6
I5
I2
I3
I6
I2
I6
I19
I1
I2
I17
I26
I200
I6
I210
I206
I7
I6
I54
I53
I5
I5
I3
I13
I192
I1
I332
tp132
a(I5330
I11
I14
I4
I14
I9
I7
I4
I3
I2
I4
I1
I2
I6
I5
I6
I14
I5
I8
I2
I1
I4
I5
I4
I3
I3
I6
I4
I10
I39
I84
I7
I11
I8
I12
I2
I5
I1
I3
I12
I1
I16
I35
I369
I147
I13
I78
I1
I110
I359
tp133
a(I5321
I1
I8
I11
I9
I1
I5
I1
I3
I3
I2
I19
I3
I14
I5
I12
I2
I4
I22
I13
I3
I7
I27
I8
I4
I3
I12
I12
I8
I25
I18
I3
I14
I4
I243
I12
I20
I16
I122
I2
I65
I26
I88
I47
I63
I262
I23
I9
I198
I1
tp134
a(I5344
I4
I2
I11
I20
I1
I5
I3
I2
I3
I25
I2
I3
I1
I3
I4
I2
I10
I8
I5
I3
I8
I3
I15
I6
I27
I11
I1
I49
I3
I8
I34
I4
I20
I7
I15
I10
I2
I1
I147
I369
I3
I76
I90
I42
I30
I358
I2
I1
I1
tp135
a(I5325
I3
I1
I1
I10
I8
I5
I19
I6
I2
I2
I3
I10
I3
I4
I12
I14
I31
I3
I4
I4
I25
I3
I7
I2
I8
I3
I18
I9
I3
I8
I2
I2
I107
I8
I31
I168
I108
I47
I3
I87
I41
I114
I8
I54
I73
I285
I1
I107
I2
tp136
a(I5309
I46
I1
I16
I17
I2
I14
I3
I4
I1
I3
I2
I2
I4
I24
I27
I11
I3
I3
I4
I6
I9
I2
I2
I3
I2
I115
I18
I11
I4
I6
I6
I40
I7
I220
I66
I96
I23
I113
I6
I15
I13
I168
I2
I35
I51
I1
I139
I125
I4
tp137
a(I5306
I3
I3
I3
I1
I1
I11
I14
I9
I6
I2
I4
I8
I2
I10
I4
I1
I7
I1
I2
I4
I2
I22
I2
I1
I4
I3
I9
I214
I1
I269
I39
I93
I89
I23
I14
I3
I10
I5
I8
I206
I12
I1
I28
I11
I1
I2
I1
I328
I1
tp138
a(I5303
I61
I1
I4
I13
I13
I3
I10
I4
I2
I2
I31
I19
I5
I11
I8
I34
I7
I57
I35
I22
I2
I25
I11
I50
I29
I3
I66
I5
I19
I41
I91
I130
I42
I28
I76
I230
I38
I6
I8
I7
I27
I210
I1
I6
I3
I1
I2
I1
I1
tp139
a(I5313
I1
I1
I1
I4
I2
I4
I1
I4
I12
I1
I1
I8
I4
I5
I5
I6
I7
I7
I27
I6
I1
I2
I1
I4
I1
I414
I3
I1
I1
I64
I69
I76
I2
I5
I20
I117
I3
I55
I16
I5
I7
I105
I1
I2
I10
I3
I35
I359
I2
tp140
a(I5307
I4
I7
I2
I1
I1
I13
I6
I17
I6
I7
I1
I2
I12
I8
I3
I4
I3
I5
I3
I5
I1
I35
I20
I146
I1
I406
I9
I94
I7
I42
I43
I13
I4
I55
I4
I24
I10
I7
I67
I24
I8
I2
I1
I2
I38
I1
I1
I321
I1
tp141
a(I5310
I1
I1
I1
I1
I1
I1
I12
I1
I1
I13
I2
I4
I12
I23
I7
I4
I10
I2
I13
I4
I25
I33
I8
I233
I1
I157
I54
I52
I4
I16
I39
I32
I93
I44
I6
I9
I15
I28
I6
I18
I1
I14
I113
I13
I10
I48
I1
I306
I1
tp142
a(I5321
I1
I54
I1
I1
I1
I3
I19
I6
I9
I6
I33
I17
I11
I6
I12
I27
I7
I28
I17
I5
I2
I18
I11
I8
I13
I6
I7
I12
I2
I50
I76
I81
I139
I220
I37
I22
I12
I5
I70
I1
I62
I11
I178
I129
I42
I1
I2
I1
I1
tp143
a(I5319
I3
I1
I1
I34
I13
I7
I1
I4
I7
I13
I4
I3
I8
I2
I2
I21
I22
I2
I70
I3
I4
I3
I4
I60
I14
I5
I28
I23
I21
I11
I30
I16
I2
I5
I109
I53
I3
I6
I312
I1
I62
I9
I10
I34
I57
I14
I56
I311
I1
tp144
a(I5340
I2
I1
I7
I5
I13
I9
I48
I4
I12
I10
I2
I9
I4
I3
I4
I3
I5
I7
I3
I5
I3
I3
I13
I19
I4
I4
I32
I16
I2
I20
I7
I8
I6
I2
I86
I3
I69
I282
I7
I72
I7
I128
I42
I34
I131
I3
I303
I1
I1
tp145
a(I5309
I1
I6
I53
I2
I2
I4
I10
I3
I6
I12
I11
I3
I21
I7
I5
I1
I45
I3
I4
I43
I57
I15
I2
I3
I16
I66
I297
I16
I14
I23
I3
I2
I149
I3
I10
I14
I12
I8
I15
I13
I51
I16
I86
I86
I1
I1
I8
I264
I2
tp146
a(I5303
I1
I2
I1
I1
I4
I3
I1
I2
I6
I3
I6
I13
I8
I2
I8
I2
I3
I3
I4
I11
I39
I36
I188
I20
I66
I117
I260
I13
I6
I6
I38
I8
I38
I2
I12
I44
I1
I19
I4
I4
I8
I10
I131
I1
I1
I1
I1
I1
I342
tp147
a(I5332
I1
I10
I1
I2
I2
I2
I12
I25
I6
I3
I2
I4
I2
I9
I3
I4
I2
I22
I26
I5
I12
I5
I16
I12
I4
I174
I13
I155
I5
I107
I32
I48
I62
I68
I27
I7
I39
I16
I14
I11
I6
I68
I2
I16
I37
I4
I364
I3
I2
tp148
a(I5313
I1
I4
I9
I98
I1
I18
I3
I13
I1
I3
I2
I4
I9
I8
I1
I3
I3
I4
I26
I27
I20
I19
I44
I29
I6
I11
I3
I3
I13
I20
I2
I106
I4
I12
I3
I52
I2
I2
I224
I263
I17
I7
I16
I9
I34
I3
I326
I2
I1
tp149
a(I5295
I11
I1
I2
I2
I2
I9
I8
I2
I1
I6
I9
I1
I3
I5
I1
I25
I22
I12
I17
I1
I51
I1
I7
I1
I9
I166
I240
I24
I175
I66
I4
I4
I28
I8
I10
I74
I3
I42
I12
I71
I1
I13
I94
I4
I1
I1
I256
I2
I1
tp150
a(I5326
I2
I1
I29
I1
I7
I10
I4
I10
I37
I2
I2
I7
I9
I2
I6
I16
I5
I3
I1
I7
I5
I6
I5
I7
I16
I14
I14
I5
I10
I38
I3
I21
I181
I69
I106
I110
I45
I17
I57
I73
I84
I8
I6
I75
I19
I3
I31
I3
I286
tp151
a(I5307
I1
I1
I1
I1
I13
I49
I2
I6
I36
I3
I3
I1
I6
I2
I28
I18
I2
I8
I35
I1
I3
I5
I63
I40
I29
I31
I9
I3
I12
I23
I26
I2
I132
I77
I4
I5
I213
I6
I87
I10
I33
I6
I14
I43
I95
I303
I3
I2
I1
tp152
a(I5306
I1
I1
I1
I11
I1
I9
I2
I7
I6
I6
I9
I1
I2
I18
I1
I5
I3
I13
I2
I2
I1
I11
I12
I16
I24
I1
I22
I2
I4
I512
I68
I7
I6
I24
I76
I61
I4
I4
I3
I19
I7
I32
I9
I79
I14
I47
I137
I170
I25
tp153
a(I5300
I10
I5
I1
I11
I2
I2
I2
I2
I5
I1
I3
I4
I2
I2
I9
I1
I2
I2
I6
I18
I18
I3
I2
I8
I2
I12
I10
I7
I22
I5
I25
I7
I4
I4
I41
I253
I8
I1
I351
I2
I36
I3
I16
I6
I11
I156
I336
I64
I1
tp154
a(I5295
I1
I11
I1
I1
I3
I2
I1
I2
I2
I7
I4
I6
I3
I3
I2
I2
I2
I3
I5
I3
I1
I7
I4
I1
I8
I4
I1
I5
I21
I6
I102
I67
I324
I5
I1
I134
I16
I40
I23
I37
I6
I27
I199
I13
I10
I1
I66
I1
I315
tp155
a(I5319
I1
I3
I1
I2
I2
I7
I5
I17
I11
I4
I6
I3
I5
I2
I7
I15
I5
I3
I3
I11
I4
I87
I11
I28
I4
I87
I4
I6
I5
I2
I364
I45
I10
I42
I3
I14
I123
I7
I2
I30
I2
I46
I32
I125
I1
I1
I1
I285
I1
tp156
a(I5317
I1
I49
I18
I16
I1
I1
I3
I7
I27
I5
I4
I15
I3
I126
I2
I11
I9
I14
I3
I87
I2
I3
I3
I3
I68
I2
I9
I154
I140
I58
I21
I57
I33
I3
I130
I11
I13
I7
I14
I68
I2
I7
I1
I30
I6
I234
I4
I1
I1
tp157
a(I5309
I2
I6
I4
I1
I30
I1
I5
I7
I1
I14
I9
I13
I24
I20
I18
I37
I3
I17
I20
I3
I2
I5
I11
I2
I12
I4
I47
I50
I14
I1
I5
I14
I12
I132
I10
I4
I88
I229
I83
I15
I117
I29
I299
I2
I1
I67
I1
I2
I2
tp158
a(I5314
I1
I1
I2
I32
I4
I2
I23
I18
I9
I6
I3
I21
I10
I3
I23
I4
I5
I17
I1
I3
I2
I19
I67
I34
I29
I4
I4
I36
I9
I1
I146
I36
I17
I16
I14
I17
I42
I2
I16
I52
I78
I7
I19
I65
I121
I42
I403
I3
I1
tp159
a(I5309
I3
I2
I5
I6
I1
I3
I32
I2
I4
I20
I2
I10
I21
I4
I4
I3
I6
I17
I2
I4
I2
I14
I2
I42
I7
I12
I38
I5
I24
I9
I47
I15
I78
I16
I20
I25
I402
I15
I86
I12
I17
I13
I6
I49
I100
I284
I2
I1
I1
tp160
a(I5314
I1
I1
I1
I2
I11
I11
I6
I5
I5
I1
I1
I3
I24
I2
I9
I13
I4
I14
I2
I3
I23
I13
I3
I12
I8
I1
I5
I18
I2
I13
I1
I1
I2
I12
I3
I2
I111
I17
I4
I14
I20
I186
I41
I247
I48
I111
I183
I1
I269
tp161
a(I5305
I1
I2
I53
I3
I2
I18
I9
I3
I29
I13
I6
I2
I17
I12
I5
I83
I2
I5
I12
I11
I18
I6
I30
I6
I36
I8
I3
I108
I50
I75
I32
I2
I20
I36
I2
I14
I55
I112
I13
I5
I34
I147
I6
I47
I62
I47
I235
I1
I1
tp162
a(I5307
I1
I30
I1
I5
I3
I4
I58
I1
I1
I5
I17
I3
I4
I5
I12
I1
I9
I2
I1
I11
I3
I3
I19
I7
I7
I2
I12
I26
I121
I4
I4
I4
I80
I8
I14
I3
I129
I213
I156
I3
I55
I11
I73
I103
I15
I15
I5
I227
I1
tp163
a(I5325
I1
I1
I5
I1
I2
I4
I11
I7
I3
I3
I9
I2
I11
I4
I10
I4
I10
I5
I2
I5
I5
I5
I21
I5
I8
I10
I67
I7
I9
I5
I2
I30
I418
I72
I72
I9
I8
I6
I4
I4
I19
I52
I35
I85
I66
I70
I4
I280
I1
tp164
a(I5312
I1
I1
I2
I12
I1
I27
I4
I1
I4
I7
I5
I4
I22
I5
I4
I4
I4
I31
I14
I5
I4
I5
I10
I11
I46
I4
I6
I1
I6
I372
I7
I108
I72
I68
I2
I23
I12
I5
I111
I19
I40
I9
I4
I10
I23
I9
I345
I1
I1
tp165
a(I5315
I1
I8
I1
I1
I6
I4
I5
I10
I7
I11
I2
I1
I6
I4
I2
I5
I3
I4
I5
I4
I2
I5
I2
I22
I2
I5
I8
I19
I330
I64
I1
I2
I15
I79
I22
I162
I20
I7
I5
I14
I58
I54
I19
I16
I57
I209
I8
I8
I184
tp166
a(I5310
I1
I2
I2
I1
I10
I1
I3
I1
I10
I2
I4
I1
I3
I3
I9
I8
I2
I4
I14
I11
I13
I2
I50
I211
I346
I1
I37
I16
I69
I18
I4
I6
I35
I76
I4
I10
I7
I3
I24
I6
I6
I19
I1
I35
I34
I3
I1
I364
I1
tp167
a(I5331
I3
I1
I6
I8
I41
I5
I13
I6
I2
I13
I5
I3
I21
I13
I2
I1
I8
I22
I4
I3
I3
I5
I73
I2
I10
I1
I193
I7
I2
I2
I3
I3
I12
I11
I48
I7
I35
I146
I3
I48
I94
I224
I68
I17
I255
I10
I7
I2
I2
tp168
a(I5333
I1
I9
I38
I8
I2
I3
I2
I9
I4
I2
I12
I8
I2
I2
I5
I4
I3
I3
I10
I15
I4
I3
I64
I4
I9
I8
I3
I3
I11
I21
I5
I24
I12
I4
I5
I17
I112
I5
I193
I183
I82
I131
I77
I4
I114
I59
I13
I88
I71
tp169
a(I5306
I1
I1
I1
I1
I61
I28
I2
I67
I2
I6
I3
I9
I42
I20
I2
I13
I2
I3
I93
I1
I37
I19
I35
I5
I4
I5
I16
I4
I11
I24
I65
I295
I19
I2
I13
I21
I42
I15
I67
I7
I7
I22
I105
I46
I151
I95
I2
I4
I2
tp170
a(I5305
I1
I1
I1
I11
I17
I1
I2
I2
I3
I1
I3
I7
I5
I6
I1
I12
I2
I10
I8
I70
I17
I15
I12
I406
I2
I58
I196
I2
I14
I31
I5
I9
I6
I5
I5
I31
I3
I11
I6
I5
I67
I7
I1
I41
I10
I74
I58
I236
I2
tp171
a(I5326
I1
I9
I6
I7
I7
I1
I11
I10
I3
I1
I1
I2
I3
I3
I4
I3
I23
I5
I1
I6
I7
I3
I2
I2
I2
I31
I1
I2
I3
I5
I9
I384
I18
I48
I239
I7
I4
I13
I35
I5
I29
I7
I141
I5
I9
I1
I148
I210
I1
tp172
a(I5311
I1
I5
I4
I1
I11
I1
I7
I7
I10
I2
I4
I8
I1
I6
I3
I1
I17
I1
I24
I17
I16
I2
I14
I45
I18
I90
I5
I105
I206
I49
I56
I40
I20
I33
I34
I26
I10
I11
I20
I35
I35
I69
I39
I122
I2
I223
I3
I33
I1
tp173
a(I5329
I2
I40
I5
I8
I20
I4
I16
I4
I6
I2
I3
I4
I10
I6
I4
I4
I6
I8
I2
I34
I2
I3
I22
I5
I32
I1
I4
I3
I67
I27
I88
I3
I3
I10
I3
I16
I247
I14
I2
I115
I14
I89
I15
I33
I1
I68
I397
I2
I1
tp174
a(I5299
I1
I2
I2
I1
I4
I5
I2
I1
I15
I2
I1
I1
I1
I7
I4
I2
I13
I1
I2
I5
I25
I2
I3
I4
I10
I24
I85
I126
I112
I381
I43
I20
I76
I5
I7
I7
I124
I8
I2
I6
I50
I2
I2
I1
I1
I165
I139
I2
I1
tp175
a(I5308
I1
I4
I64
I1
I2
I4
I3
I1
I1
I4
I5
I29
I17
I14
I18
I2
I2
I1
I3
I4
I7
I36
I18
I3
I17
I1
I5
I17
I4
I82
I157
I27
I3
I15
I364
I6
I17
I3
I1
I69
I90
I3
I355
I5
I7
I1
I1
I1
I1
tp176
a(I5324
I2
I23
I2
I3
I13
I5
I30
I5
I3
I2
I3
I6
I1
I14
I2
I169
I1
I48
I2
I56
I3
I6
I1
I1
I110
I80
I1
I50
I7
I16
I74
I12
I38
I2
I7
I8
I76
I82
I28
I8
I8
I20
I21
I19
I143
I1
I266
I1
I1
tp177
a(I5317
I2
I12
I14
I1
I9
I3
I3
I3
I4
I6
I5
I9
I8
I4
I3
I23
I3
I2
I3
I28
I3
I15
I51
I16
I7
I29
I1
I10
I52
I3
I2
I1
I13
I3
I9
I162
I15
I41
I35
I25
I3
I284
I2
I9
I104
I28
I417
I1
I1
tp178
a(I5324
I3
I6
I18
I7
I13
I1
I6
I2
I1
I13
I24
I3
I39
I3
I45
I39
I16
I3
I4
I11
I11
I1
I35
I8
I9
I14
I3
I39
I83
I2
I80
I3
I138
I94
I114
I13
I4
I5
I305
I9
I40
I5
I15
I102
I85
I3
I1
I1
I1
tp179
a(I5309
I1
I1
I1
I22
I1
I7
I3
I11
I4
I16
I2
I11
I11
I1
I6
I5
I6
I1
I9
I39
I2
I6
I12
I111
I1
I46
I15
I3
I4
I28
I360
I25
I13
I151
I7
I53
I22
I22
I151
I6
I1
I289
I1
I2
I2
I1
I1
I1
I1
tp180
a(I5330
I2
I1
I1
I4
I1
I1
I7
I20
I50
I3
I5
I1
I11
I10
I12
I7
I4
I17
I5
I5
I1
I11
I5
I6
I34
I22
I3
I16
I7
I2
I28
I45
I12
I2
I324
I1
I67
I83
I21
I172
I15
I57
I47
I2
I99
I7
I216
I1
I1
tp181
a(I5310
I6
I5
I3
I11
I11
I6
I2
I75
I7
I40
I17
I13
I12
I2
I2
I2
I4
I11
I4
I18
I1
I36
I5
I12
I8
I18
I15
I1
I39
I5
I17
I25
I15
I44
I318
I75
I73
I103
I10
I8
I9
I27
I5
I44
I1
I101
I2
I225
I1
tp182
a(I5315
I2
I13
I12
I9
I20
I3
I7
I3
I3
I36
I8
I6
I1
I14
I5
I5
I7
I7
I2
I3
I29
I8
I10
I11
I11
I48
I1
I2
I112
I9
I7
I75
I2
I10
I26
I4
I1
I280
I84
I10
I35
I7
I126
I2
I35
I100
I275
I2
I1
tp183
a(I5323
I1
I3
I3
I24
I4
I4
I4
I3
I2
I14
I6
I3
I6
I6
I11
I2
I3
I10
I11
I29
I125
I31
I11
I4
I7
I6
I124
I75
I5
I33
I2
I83
I269
I5
I7
I8
I213
I19
I1
I1
I1
I6
I141
I150
I1
I1
I1
I1
I1
tp184
a(I5331
I1
I1
I10
I4
I3
I2
I2
I2
I3
I3
I3
I3
I2
I7
I2
I2
I7
I11
I8
I13
I2
I6
I87
I75
I93
I105
I9
I239
I30
I105
I22
I34
I8
I5
I4
I26
I25
I60
I58
I15
I107
I22
I1
I2
I237
I3
I2
I1
I1
tp185
a(I5301
I2
I1
I3
I4
I12
I5
I2
I2
I1
I14
I11
I10
I2
I2
I4
I15
I6
I1
I5
I4
I2
I4
I34
I64
I15
I24
I82
I65
I13
I335
I81
I9
I13
I9
I142
I7
I5
I34
I13
I4
I6
I86
I32
I2
I45
I1
I268
I1
I1
tp186
a(I5294
I1
I1
I2
I2
I1
I1
I13
I9
I11
I2
I2
I4
I6
I5
I6
I3
I4
I2
I3
I5
I11
I3
I12
I57
I25
I1
I12
I14
I58
I49
I118
I31
I127
I292
I14
I39
I5
I43
I19
I146
I1
I12
I5
I2
I1
I324
I1
I4
I1
tp187
a(I5311
I1
I1
I7
I4
I75
I3
I21
I13
I3
I19
I10
I8
I11
I3
I7
I12
I44
I2
I11
I2
I2
I3
I20
I24
I5
I66
I95
I4
I2
I197
I116
I69
I39
I54
I57
I4
I19
I19
I15
I2
I22
I116
I214
I65
I1
I2
I2
I1
I1
tp188
a(I5333
I1
I1
I1
I1
I19
I15
I1
I10
I8
I7
I3
I3
I4
I29
I25
I7
I3
I6
I1
I3
I4
I60
I6
I18
I19
I57
I1
I2
I13
I59
I92
I27
I67
I32
I28
I7
I192
I14
I176
I44
I65
I5
I1
I329
I1
I1
I1
I1
I1
tp189
a(I5308
I2
I2
I65
I1
I2
I5
I6
I36
I7
I29
I8
I18
I9
I13
I4
I40
I8
I39
I1
I83
I7
I18
I1
I8
I3
I82
I34
I27
I3
I44
I16
I27
I171
I42
I124
I24
I106
I12
I61
I1
I2
I293
I4
I3
I1
I1
I1
I1
I1
tp190
a(I5307
I1
I1
I5
I10
I1
I1
I50
I17
I11
I6
I9
I4
I4
I3
I99
I2
I9
I5
I1
I8
I11
I3
I62
I22
I74
I11
I6
I10
I5
I75
I1
I9
I273
I9
I50
I67
I3
I31
I13
I11
I8
I33
I17
I138
I38
I124
I143
I2
I1
tp191
a(I5327
I44
I5
I1
I6
I3
I4
I6
I7
I1
I7
I9
I2
I8
I3
I2
I4
I19
I3
I4
I16
I25
I45
I13
I3
I5
I6
I29
I20
I50
I87
I39
I47
I15
I169
I275
I17
I41
I27
I45
I3
I2
I337
I14
I2
I1
I1
I2
I1
I2
tp192
a(I5296
I2
I1
I2
I4
I2
I1
I2
I3
I13
I2
I2
I2
I3
I5
I4
I3
I11
I2
I6
I178
I64
I6
I5
I42
I3
I376
I62
I2
I72
I13
I12
I71
I60
I13
I6
I10
I143
I1
I2
I2
I3
I284
I1
I1
I1
I1
I2
I1
I1
tp193
a(I5320
I1
I2
I2
I18
I7
I2
I4
I3
I1
I9
I15
I8
I2
I2
I16
I22
I4
I6
I2
I6
I5
I8
I23
I8
I96
I70
I2
I378
I5
I2
I16
I169
I12
I8
I7
I8
I12
I16
I55
I25
I18
I1
I194
I29
I1
I181
I1
I1
I1
tp194
a(I5312
I1
I1
I1
I1
I1
I1
I14
I1
I49
I3
I7
I9
I4
I25
I3
I26
I2
I3
I11
I6
I2
I2
I3
I7
I120
I4
I6
I101
I5
I16
I21
I2
I25
I293
I20
I48
I142
I14
I15
I23
I52
I1
I15
I15
I364
I1
I4
I1
I1
tp195
a(I5307
I1
I1
I5
I13
I14
I4
I6
I3
I2
I2
I2
I17
I2
I10
I3
I5
I10
I13
I15
I2
I10
I13
I7
I24
I27
I64
I15
I6
I1
I308
I51
I54
I20
I38
I63
I13
I7
I109
I16
I4
I20
I38
I10
I238
I159
I49
I1
I1
I1
tp196
a(I5319
I46
I4
I5
I9
I10
I7
I5
I4
I4
I1
I70
I11
I6
I7
I2
I1
I2
I2
I11
I3
I3
I2
I5
I36
I2
I11
I4
I7
I15
I144
I2
I122
I12
I169
I4
I23
I80
I4
I4
I42
I99
I124
I4
I204
I145
I2
I3
I2
I1
tp197
a(I5304
I2
I13
I3
I5
I32
I11
I6
I3
I10
I13
I4
I24
I23
I2
I4
I2
I2
I28
I26
I24
I9
I31
I26
I50
I7
I8
I90
I15
I9
I39
I9
I43
I5
I19
I18
I25
I9
I21
I55
I94
I47
I178
I1
I265
I4
I105
I32
I48
I1
tp198
a(I5309
I1
I1
I1
I1
I11
I1
I3
I3
I5
I3
I10
I3
I1
I5
I5
I7
I7
I1
I10
I4
I13
I18
I2
I24
I18
I3
I37
I190
I105
I1
I288
I16
I39
I4
I31
I63
I35
I14
I55
I7
I8
I68
I1
I1
I367
I1
I1
I1
I1
tp199
a(I5319
I1
I1
I10
I12
I13
I2
I7
I3
I13
I7
I1
I4
I5
I2
I2
I3
I5
I8
I3
I25
I2
I49
I11
I4
I7
I7
I8
I19
I28
I86
I35
I200
I91
I27
I37
I13
I66
I5
I18
I140
I21
I187
I15
I51
I2
I149
I40
I39
I1
tp200
a(I5294
I1
I1
I2
I2
I2
I3
I1
I2
I4
I2
I2
I20
I6
I7
I9
I1
I6
I11
I18
I8
I17
I24
I70
I90
I225
I101
I1
I26
I133
I5
I31
I21
I7
I44
I10
I44
I2
I29
I8
I23
I125
I17
I2
I2
I1
I341
I1
I1
I1
tp201
a(I5302
I1
I4
I7
I12
I2
I7
I2
I2
I4
I5
I6
I3
I3
I1
I4
I3
I9
I9
I3
I5
I1
I24
I3
I17
I14
I24
I35
I13
I170
I26
I224
I157
I19
I27
I69
I52
I3
I4
I15
I7
I102
I17
I20
I14
I2
I10
I1
I338
I2
tp202
a(I5308
I4
I20
I3
I5
I2
I2
I5
I42
I3
I3
I17
I12
I15
I1
I6
I8
I8
I7
I17
I1
I16
I3
I9
I14
I4
I5
I58
I46
I31
I12
I2
I32
I44
I48
I19
I38
I17
I68
I52
I31
I326
I14
I5
I31
I32
I41
I312
I1
I4
tp203
a(I5305
I1
I3
I22
I4
I11
I1
I2
I3
I2
I9
I3
I4
I6
I5
I12
I2
I11
I14
I3
I1
I4
I1
I5
I21
I4
I5
I45
I46
I58
I43
I2
I414
I90
I42
I14
I8
I12
I3
I1
I11
I3
I33
I109
I2
I2
I3
I397
I1
I1
tp204
a(I5301
I1
I1
I4
I1
I13
I1
I7
I2
I3
I4
I2
I2
I4
I7
I2
I12
I1
I1
I5
I22
I5
I1
I1
I1
I140
I86
I4
I5
I318
I2
I63
I46
I3
I4
I108
I7
I2
I8
I6
I119
I20
I3
I8
I6
I2
I378
I1
I60
I1
tp205
a(I5333
I2
I1
I1
I9
I33
I14
I4
I2
I32
I4
I5
I4
I7
I1
I1
I2
I3
I3
I81
I24
I8
I18
I11
I25
I7
I1
I32
I18
I314
I3
I4
I34
I88
I22
I22
I4
I28
I20
I38
I5
I1
I13
I23
I43
I2
I409
I4
I40
I1
tp206
a(I5308
I58
I1
I1
I5
I8
I6
I8
I7
I2
I2
I7
I13
I10
I63
I3
I50
I19
I10
I42
I2
I4
I8
I49
I8
I4
I34
I2
I17
I21
I22
I17
I20
I106
I2
I2
I130
I157
I30
I41
I57
I60
I27
I1
I37
I1
I1
I318
I2
I1
tp207
a(I5300
I6
I4
I1
I1
I3
I5
I35
I15
I68
I32
I74
I83
I3
I1
I12
I3
I5
I12
I6
I1
I12
I12
I22
I11
I7
I9
I14
I205
I3
I96
I106
I86
I28
I27
I28
I28
I7
I55
I24
I1
I35
I34
I38
I6
I5
I95
I118
I14
I8
tp208
a(I5303
I1
I1
I1
I5
I9
I1
I2
I1
I1
I10
I3
I3
I2
I3
I1
I5
I6
I1
I7
I6
I2
I3
I25
I7
I86
I28
I167
I318
I31
I3
I19
I3
I57
I94
I43
I3
I153
I7
I8
I16
I1
I35
I1
I1
I3
I313
I1
I2
I2
tp209
a(I5331
I8
I1
I7
I14
I2
I13
I13
I2
I9
I1
I6
I3
I7
I6
I2
I10
I3
I4
I11
I11
I2
I2
I3
I5
I8
I30
I19
I5
I71
I226
I2
I1
I240
I103
I36
I5
I14
I143
I156
I77
I1
I132
I22
I19
I8
I7
I1
I1
I1
tp210
a(I5302
I11
I5
I1
I6
I2
I2
I2
I2
I2
I2
I2
I7
I2
I6
I5
I1
I5
I5
I1
I15
I20
I69
I3
I1
I56
I40
I11
I412
I13
I6
I10
I14
I38
I46
I10
I68
I23
I5
I4
I12
I58
I170
I1
I1
I1
I323
I1
I1
I1
tp211
a(I5296
I1
I3
I6
I12
I3
I2
I5
I5
I4
I13
I3
I2
I21
I1
I4
I7
I21
I24
I4
I5
I50
I68
I35
I1
I53
I407
I3
I72
I9
I21
I53
I13
I11
I7
I27
I4
I2
I20
I3
I46
I3
I83
I28
I4
I1
I109
I1
I226
I2
tp212
a(I5305
I1
I4
I1
I1
I3
I3
I26
I3
I2
I5
I7
I12
I6
I5
I2
I5
I4
I4
I5
I3
I9
I4
I6
I15
I13
I16
I1
I5
I41
I52
I1
I102
I113
I162
I2
I97
I5
I92
I17
I14
I17
I48
I8
I4
I26
I38
I21
I61
I407
tp213
a(I5316
I12
I5
I1
I5
I4
I3
I3
I5
I3
I4
I5
I7
I9
I3
I5
I1
I2
I5
I3
I2
I1
I2
I3
I4
I9
I1
I2
I118
I40
I19
I19
I14
I323
I18
I10
I119
I115
I10
I5
I15
I201
I3
I2
I3
I1
I1
I340
I2
I1
tp214
a(I5303
I1
I2
I2
I5
I2
I2
I5
I6
I1
I1
I2
I2
I3
I12
I1
I5
I4
I3
I2
I3
I32
I3
I3
I11
I6
I2
I52
I50
I43
I254
I48
I1
I68
I38
I41
I87
I55
I9
I15
I3
I133
I7
I15
I5
I63
I390
I1
I1
I1
tp215
a(I5312
I1
I2
I2
I5
I15
I15
I2
I16
I2
I3
I14
I6
I9
I11
I28
I19
I17
I2
I45
I18
I12
I2
I60
I4
I6
I3
I3
I2
I3
I7
I2
I4
I13
I26
I49
I44
I43
I12
I149
I289
I90
I11
I12
I24
I1
I40
I94
I6
I249
tp216
a(I5315
I1
I7
I12
I4
I15
I5
I3
I2
I4
I1
I7
I4
I2
I3
I1
I4
I9
I2
I7
I4
I2
I3
I23
I1
I15
I2
I30
I21
I1
I14
I13
I90
I167
I13
I2
I237
I6
I17
I5
I121
I60
I26
I105
I16
I17
I30
I1
I13
I341
tp217
a(I5286
I10
I1
I4
I2
I4
I1
I3
I4
I1
I2
I17
I10
I4
I6
I7
I5
I9
I2
I14
I11
I2
I583
I61
I68
I40
I6
I30
I36
I3
I5
I41
I4
I38
I5
I16
I4
I96
I11
I14
I1
I1
I95
I223
I1
I13
I1
I1
I1
I1
tp218
a(I5323
I2
I17
I13
I12
I2
I4
I4
I5
I19
I9
I4
I16
I3
I2
I3
I1
I22
I4
I17
I12
I7
I18
I10
I7
I15
I21
I17
I27
I3
I27
I40
I395
I2
I26
I24
I21
I217
I6
I38
I23
I1
I58
I36
I177
I4
I87
I1
I1
I1
tp219
a(I5328
I1
I3
I5
I4
I3
I8
I1
I2
I8
I2
I3
I11
I2
I15
I5
I2
I10
I3
I3
I2
I9
I16
I6
I25
I15
I11
I97
I26
I6
I11
I10
I11
I243
I1
I76
I29
I23
I92
I21
I17
I24
I195
I17
I13
I9
I4
I373
I2
I1
tp220
a(I5301
I115
I2
I1
I46
I1
I3
I4
I12
I6
I4
I30
I60
I14
I14
I27
I13
I3
I3
I23
I2
I54
I4
I14
I54
I25
I24
I21
I19
I44
I41
I8
I5
I2
I22
I147
I3
I76
I11
I41
I7
I21
I140
I77
I227
I8
I19
I1
I4
I1
tp221
a(I5314
I1
I4
I1
I5
I5
I1
I12
I3
I2
I3
I3
I3
I2
I9
I4
I2
I8
I6
I23
I22
I1
I9
I10
I16
I4
I6
I4
I4
I8
I6
I22
I27
I9
I23
I1
I2
I446
I106
I12
I8
I126
I9
I23
I23
I157
I23
I17
I268
I1
tp222
a(I5326
I1
I12
I2
I1
I1
I2
I2
I8
I4
I1
I1
I11
I3
I1
I8
I1
I3
I2
I5
I4
I2
I5
I2
I8
I1
I4
I4
I18
I1
I7
I28
I2
I47
I2
I8
I20
I178
I376
I3
I3
I255
I2
I13
I1
I32
I22
I1
I2
I358
tp223
a(I5327
I2
I6
I24
I10
I4
I8
I1
I15
I4
I5
I2
I2
I10
I2
I2
I6
I11
I2
I2
I16
I4
I2
I23
I37
I69
I3
I8
I9
I188
I20
I4
I375
I34
I3
I3
I47
I41
I10
I100
I32
I6
I318
I1
I1
I1
I1
I1
I1
I1
tp224
a(I5316
I1
I10
I4
I2
I1
I3
I2
I2
I2
I3
I4
I9
I2
I1
I6
I3
I2
I2
I19
I1
I7
I2
I6
I6
I3
I12
I39
I106
I161
I2
I94
I1
I53
I6
I204
I61
I78
I12
I96
I9
I16
I22
I23
I19
I198
I70
I91
I11
I1
tp225
a(I5312
I1
I8
I18
I5
I66
I7
I3
I1
I12
I2
I4
I19
I11
I9
I20
I4
I43
I3
I2
I5
I4
I52
I21
I11
I1
I95
I2
I91
I58
I3
I25
I2
I10
I56
I225
I28
I31
I13
I52
I7
I16
I7
I116
I1
I311
I1
I6
I2
I2
tp226
a(I5313
I1
I1
I1
I1
I8
I2
I6
I4
I3
I4
I1
I6
I3
I4
I6
I3
I6
I3
I4
I9
I1
I2
I15
I5
I12
I3
I16
I18
I8
I231
I33
I74
I120
I109
I4
I18
I43
I125
I8
I48
I9
I18
I59
I2
I30
I182
I1
I220
I1
tp227
a(I5308
I1
I5
I15
I5
I4
I57
I17
I11
I6
I7
I14
I1
I2
I6
I35
I26
I12
I24
I7
I2
I10
I53
I3
I17
I58
I1
I14
I6
I69
I38
I13
I2
I13
I3
I2
I3
I115
I72
I146
I85
I104
I1
I89
I295
I5
I6
I12
I2
I2
tp228
a(I5321
I9
I3
I8
I6
I3
I55
I5
I3
I9
I5
I8
I3
I1
I11
I3
I2
I36
I2
I12
I9
I3
I12
I15
I5
I42
I4
I4
I8
I5
I5
I14
I14
I1
I228
I20
I14
I60
I9
I171
I28
I20
I44
I55
I44
I22
I440
I1
I1
I1
tp229
a(I5327
I1
I88
I13
I4
I17
I13
I10
I5
I7
I14
I4
I20
I10
I4
I1
I1
I20
I3
I4
I32
I2
I36
I42
I8
I26
I5
I5
I36
I6
I1
I3
I83
I10
I137
I3
I125
I9
I107
I154
I8
I1
I327
I6
I3
I56
I1
I4
I1
I1
tp230
a(I5305
I1
I6
I10
I5
I3
I1
I4
I2
I3
I2
I3
I2
I2
I2
I1
I13
I2
I2
I6
I4
I2
I4
I3
I8
I11
I13
I1
I5
I6
I2
I43
I429
I50
I11
I53
I102
I54
I43
I13
I38
I31
I4
I1
I115
I16
I87
I275
I4
I1
tp231
a(I5316
I1
I1
I1
I11
I9
I6
I1
I1
I7
I4
I1
I3
I7
I2
I2
I4
I6
I4
I2
I5
I3
I5
I6
I7
I12
I14
I4
I51
I3
I47
I39
I3
I48
I179
I202
I3
I69
I70
I39
I9
I48
I6
I7
I19
I128
I57
I20
I1
I311
tp232
a(I5308
I1
I1
I1
I5
I63
I7
I34
I15
I5
I7
I10
I46
I2
I3
I38
I60
I4
I6
I25
I8
I164
I17
I3
I3
I19
I46
I13
I25
I6
I38
I11
I4
I224
I81
I4
I97
I7
I4
I20
I1
I23
I21
I1
I1
I1
I312
I6
I2
I1
tp233
a(I5319
I2
I1
I1
I26
I4
I7
I5
I1
I6
I16
I17
I12
I10
I3
I4
I2
I3
I11
I4
I3
I2
I13
I4
I2
I3
I20
I50
I5
I4
I4
I4
I21
I25
I154
I4
I262
I4
I101
I4
I21
I197
I63
I30
I26
I317
I3
I1
I1
I2
tp234
a(I5323
I1
I11
I1
I4
I11
I7
I1
I3
I1
I5
I1
I2
I2
I5
I4
I10
I3
I4
I2
I1
I2
I2
I29
I18
I27
I16
I2
I3
I8
I4
I1
I5
I2
I150
I8
I69
I68
I337
I9
I21
I29
I35
I162
I39
I2
I2
I36
I1
I315
tp235
a(I5308
I9
I1
I2
I2
I5
I4
I3
I7
I3
I2
I4
I4
I7
I3
I4
I1
I5
I9
I3
I2
I42
I9
I2
I354
I74
I19
I42
I2
I1
I157
I27
I15
I8
I37
I3
I26
I10
I10
I5
I34
I192
I5
I1
I91
I1
I1
I1
I245
I2
tp236
a(I5325
I4
I6
I10
I12
I12
I2
I2
I1
I6
I2
I2
I9
I5
I5
I1
I4
I6
I1
I9
I5
I1
I125
I1
I1
I348
I15
I2
I75
I40
I8
I97
I7
I69
I15
I39
I3
I3
I4
I71
I39
I15
I117
I13
I2
I41
I1
I220
I1
I2
tp237
a(I5301
I1
I12
I1
I6
I3
I2
I2
I2
I2
I6
I1
I4
I3
I13
I3
I3
I4
I1
I3
I4
I16
I1
I13
I8
I2
I1
I28
I2
I12
I5
I6
I424
I18
I293
I15
I50
I13
I3
I9
I11
I11
I45
I67
I35
I1
I1
I335
I1
I1
tp238
a(I5316
I1
I1
I3
I4
I4
I3
I9
I3
I1
I1
I1
I4
I2
I2
I2
I1
I13
I7
I1
I7
I22
I4
I34
I19
I3
I13
I473
I186
I1
I10
I32
I10
I5
I7
I15
I6
I6
I17
I131
I5
I2
I7
I6
I7
I34
I111
I1
I250
I1
tp239
a(I5314
I1
I1
I2
I1
I1
I1
I12
I4
I2
I16
I3
I2
I11
I2
I13
I6
I23
I1
I4
I5
I8
I23
I70
I14
I6
I234
I2
I2
I1
I219
I27
I77
I15
I9
I46
I8
I11
I2
I163
I2
I23
I31
I1
I13
I1
I366
I1
I2
I2
tp240
a(I5298
I1
I1
I1
I5
I11
I3
I3
I17
I2
I2
I2
I2
I8
I4
I28
I9
I2
I4
I2
I15
I293
I3
I5
I61
I242
I1
I54
I54
I12
I2
I54
I7
I44
I15
I106
I12
I19
I23
I1
I23
I24
I1
I24
I34
I90
I1
I177
I1
I1
tp241
a(I5310
I1
I73
I13
I24
I4
I51
I9
I1
I1
I21
I6
I57
I5
I2
I4
I4
I87
I25
I40
I4
I6
I10
I76
I16
I9
I11
I13
I8
I29
I21
I2
I231
I11
I4
I66
I30
I76
I21
I32
I15
I2
I23
I33
I2
I305
I6
I1
I2
I1
tp242
a(I5314
I2
I1
I2
I1
I1
I35
I1
I1
I3
I4
I12
I26
I4
I4
I60
I29
I21
I3
I2
I19
I4
I9
I4
I15
I69
I6
I30
I15
I46
I186
I16
I153
I68
I86
I11
I76
I26
I50
I79
I2
I7
I7
I1
I37
I250
I2
I1
I2
I1
tp243
a(I5302
I1
I7
I19
I3
I2
I6
I1
I7
I3
I4
I6
I14
I7
I2
I24
I3
I1
I3
I65
I17
I1
I2
I14
I2
I12
I7
I8
I2
I12
I22
I3
I68
I24
I1
I3
I5
I125
I14
I7
I83
I36
I3
I288
I104
I52
I53
I106
I248
I2
tp244
a(I5317
I7
I5
I6
I5
I1
I3
I3
I5
I3
I2
I17
I8
I17
I3
I3
I5
I5
I21
I16
I2
I4
I29
I11
I4
I19
I5
I84
I210
I47
I126
I3
I90
I104
I65
I13
I36
I22
I3
I23
I7
I78
I23
I1
I34
I4
I302
I1
I1
I1
tp245
a(I5313
I3
I7
I4
I7
I51
I2
I3
I5
I5
I7
I2
I7
I20
I2
I5
I4
I6
I11
I8
I2
I17
I9
I7
I3
I10
I19
I1
I25
I55
I9
I14
I267
I2
I289
I16
I84
I13
I38
I19
I30
I84
I4
I309
I1
I1
I1
I1
I1
I1
tp246
a(I5321
I1
I1
I2
I1
I13
I10
I3
I8
I3
I5
I4
I3
I2
I4
I2
I12
I2
I4
I1
I2
I2
I9
I2
I12
I12
I9
I5
I36
I99
I5
I13
I381
I71
I139
I27
I2
I38
I12
I6
I5
I32
I69
I30
I5
I3
I5
I2
I368
I1
tp247
a(I5294
I3
I8
I3
I7
I6
I4
I5
I14
I2
I1
I3
I6
I2
I6
I2
I8
I7
I7
I5
I5
I1
I20
I24
I228
I5
I1
I1
I317
I1
I59
I192
I3
I4
I8
I59
I38
I6
I26
I8
I4
I5
I32
I15
I162
I1
I1
I183
I1
I1
tp248
a(I5297
I2
I1
I11
I2
I6
I3
I2
I2
I4
I4
I1
I4
I2
I3
I5
I3
I4
I2
I13
I1
I6
I13
I13
I2
I49
I9
I1
I7
I386
I163
I2
I7
I62
I15
I8
I8
I24
I4
I6
I9
I69
I5
I28
I169
I16
I259
I1
I59
I32
tp249
a(I5313
I1
I6
I39
I7
I15
I2
I5
I2
I4
I2
I7
I18
I11
I8
I8
I28
I27
I3
I17
I21
I20
I4
I8
I5
I8
I19
I2
I193
I12
I48
I45
I28
I135
I31
I182
I15
I49
I14
I44
I14
I4
I11
I345
I5
I11
I4
I2
I1
I1
tp250
a(I5330
I1
I9
I7
I8
I14
I13
I3
I1
I1
I1
I1
I7
I4
I4
I12
I2
I6
I5
I4
I6
I21
I2
I14
I4
I3
I351
I7
I1
I1
I9
I132
I77
I37
I49
I7
I52
I53
I4
I4
I114
I9
I9
I69
I2
I330
I1
I1
I1
I1
tp251
a(I5312
I13
I3
I6
I3
I2
I3
I2
I2
I7
I6
I3
I2
I4
I1
I2
I3
I4
I4
I1
I2
I23
I4
I20
I13
I12
I26
I1
I1
I1
I9
I29
I5
I26
I363
I21
I9
I34
I81
I29
I19
I6
I35
I19
I4
I10
I230
I3
I1
I385
tp252
a(I5314
I1
I1
I6
I7
I3
I10
I4
I2
I2
I7
I2
I9
I3
I6
I3
I6
I7
I3
I10
I9
I17
I6
I6
I6
I1
I1
I21
I53
I5
I33
I8
I2
I404
I67
I83
I15
I66
I4
I11
I119
I24
I8
I6
I13
I52
I70
I285
I1
I2
tp253
a(I5298
I3
I1
I4
I4
I2
I1
I3
I7
I5
I11
I3
I2
I3
I2
I3
I9
I3
I2
I1
I82
I1
I1
I11
I16
I1
I35
I346
I10
I7
I86
I14
I92
I16
I2
I9
I149
I4
I10
I2
I19
I3
I90
I34
I1
I16
I54
I1
I324
I1
tp254
a(I5299
I1
I1
I2
I1
I10
I1
I11
I1
I3
I4
I6
I3
I6
I6
I2
I7
I12
I3
I9
I10
I4
I12
I6
I8
I9
I2
I67
I95
I63
I387
I32
I27
I135
I44
I27
I3
I9
I10
I198
I1
I2
I5
I1
I150
I3
I59
I45
I1
I1
tp255
a(I5309
I1
I79
I4
I5
I11
I6
I10
I4
I14
I4
I7
I51
I9
I4
I2
I9
I2
I7
I3
I1
I8
I62
I3
I11
I37
I28
I5
I3
I20
I16
I20
I27
I7
I54
I183
I78
I16
I110
I17
I137
I22
I13
I53
I107
I212
I9
I2
I1
I1
tp256
a(I5305
I6
I1
I3
I17
I3
I3
I4
I21
I11
I19
I2
I6
I7
I6
I12
I3
I6
I2
I10
I1
I28
I10
I4
I3
I4
I8
I7
I14
I78
I1
I4
I116
I49
I270
I36
I25
I255
I30
I8
I224
I2
I6
I3
I118
I45
I4
I2
I1
I1
tp257
a(I5329
I8
I57
I4
I13
I2
I3
I27
I4
I4
I15
I3
I22
I2
I2
I2
I3
I2
I54
I6
I3
I119
I3
I2
I8
I25
I7
I10
I15
I3
I76
I9
I48
I3
I194
I2
I54
I9
I51
I12
I126
I10
I32
I75
I7
I334
I1
I2
I1
I1
tp258
a(I5317
I1
I7
I1
I7
I6
I7
I3
I6
I12
I3
I2
I2
I2
I4
I6
I5
I2
I14
I15
I1
I17
I9
I2
I42
I4
I27
I13
I7
I6
I151
I101
I138
I154
I11
I4
I7
I37
I16
I4
I161
I3
I13
I35
I127
I1
I1
I288
I1
I1
tp259
a(I5294
I3
I1
I4
I3
I5
I1
I11
I8
I5
I1
I4
I3
I6
I2
I2
I7
I6
I4
I11
I1
I4
I23
I398
I85
I25
I7
I131
I38
I19
I57
I26
I4
I4
I3
I8
I8
I4
I16
I2
I2
I94
I10
I1
I47
I41
I52
I1
I2
I310
tp260
a(I5313
I1
I41
I2
I17
I10
I22
I15
I4
I12
I9
I3
I5
I6
I12
I11
I12
I2
I5
I9
I35
I48
I11
I23
I3
I5
I18
I4
I3
I3
I46
I5
I101
I4
I47
I66
I153
I21
I111
I94
I2
I1
I1
I288
I158
I37
I2
I1
I1
I1
tp261
a(I5312
I1
I5
I3
I97
I4
I39
I2
I2
I6
I5
I7
I10
I9
I14
I4
I13
I19
I6
I3
I2
I17
I5
I9
I1
I119
I4
I65
I11
I53
I10
I154
I2
I8
I7
I280
I17
I2
I127
I7
I3
I3
I1
I330
I1
I1
I1
I1
I1
I1
tp262
a(I5308
I1
I6
I8
I4
I3
I3
I7
I5
I2
I3
I2
I2
I4
I2
I7
I5
I6
I13
I4
I3
I1
I1
I3
I4
I3
I5
I26
I14
I4
I27
I31
I1
I142
I193
I291
I88
I13
I26
I6
I142
I2
I7
I87
I2
I1
I246
I38
I1
I1
tp263
a(I5326
I4
I12
I15
I8
I9
I2
I2
I8
I3
I2
I2
I2
I4
I7
I4
I21
I4
I1
I1
I21
I2
I452
I4
I31
I21
I43
I13
I39
I82
I6
I4
I40
I3
I22
I14
I24
I5
I39
I1
I7
I85
I4
I64
I1
I2
I1
I49
I80
I208
tp264
a(I5310
I1
I12
I3
I2
I3
I3
I3
I9
I2
I3
I8
I3
I5
I26
I3
I4
I1
I3
I3
I1
I4
I2
I6
I1
I4
I12
I8
I7
I12
I359
I125
I266
I39
I8
I195
I9
I11
I1
I1
I29
I1
I286
I1
I2
I1
I1
I1
I2
I2
tp265
a(I5310
I8
I5
I5
I6
I56
I13
I3
I3
I17
I8
I2
I31
I6
I2
I10
I9
I9
I9
I41
I20
I6
I33
I11
I14
I8
I9
I18
I23
I33
I79
I298
I2
I2
I54
I179
I10
I34
I54
I2
I7
I162
I173
I1
I10
I4
I2
I1
I1
I1
tp266
a(I5315
I1
I18
I5
I4
I2
I3
I47
I2
I5
I3
I2
I5
I3
I15
I4
I2
I8
I3
I9
I13
I2
I4
I5
I8
I2
I24
I50
I13
I5
I1
I98
I28
I50
I79
I18
I373
I23
I4
I109
I11
I71
I24
I6
I18
I37
I265
I4
I1
I2
tp267
a(I5311
I4
I3
I4
I1
I11
I3
I5
I3
I2
I6
I4
I2
I2
I5
I10
I2
I2
I1
I5
I6
I4
I5
I1
I9
I10
I3
I1
I1
I111
I156
I3
I37
I69
I43
I26
I10
I208
I3
I98
I69
I6
I79
I31
I193
I2
I131
I99
I3
I1
tp268
a(I5315
I3
I1
I1
I1
I2
I3
I5
I2
I2
I2
I2
I10
I1
I3
I18
I7
I1
I6
I9
I8
I1
I5
I21
I16
I22
I29
I4
I270
I1
I301
I24
I9
I40
I7
I65
I18
I11
I13
I19
I78
I26
I1
I102
I4
I2
I309
I2
I1
I1
tp269
a(I5312
I4
I1
I13
I2
I2
I9
I3
I7
I3
I11
I3
I1
I5
I1
I11
I5
I1
I34
I77
I10
I4
I75
I1
I104
I2
I173
I7
I3
I259
I16
I11
I54
I55
I75
I6
I5
I6
I9
I20
I70
I14
I1
I1
I39
I1
I1
I1
I273
I3
tp270
a(I5310
I2
I1
I7
I11
I3
I3
I4
I3
I7
I7
I14
I4
I6
I2
I1
I3
I11
I2
I7
I4
I2
I16
I18
I11
I7
I20
I49
I10
I3
I294
I142
I7
I198
I3
I17
I92
I14
I5
I2
I23
I112
I7
I1
I10
I325
I1
I1
I1
I1
tp271
a(I5308
I1
I5
I11
I4
I4
I2
I10
I2
I5
I2
I2
I9
I2
I2
I2
I2
I2
I2
I5
I1
I4
I13
I14
I5
I4
I10
I8
I1
I6
I2
I1
I21
I82
I15
I402
I1
I63
I37
I234
I8
I4
I113
I7
I2
I18
I2
I1
I342
I1
tp272
a(I5302
I8
I1
I2
I3
I4
I14
I9
I5
I4
I2
I2
I6
I12
I4
I4
I2
I1
I3
I2
I1
I3
I28
I25
I8
I3
I2
I39
I3
I17
I19
I119
I7
I8
I3
I108
I2
I291
I92
I4
I22
I36
I66
I22
I19
I214
I250
I1
I1
I1
tp273
a(I5300
I1
I1
I1
I1
I2
I11
I7
I1
I2
I7
I4
I8
I1
I8
I8
I1
I35
I5
I2
I14
I9
I5
I6
I125
I193
I123
I1
I8
I37
I86
I40
I92
I24
I149
I14
I3
I7
I6
I4
I1
I1
I10
I180
I1
I1
I4
I221
I32
I1
tp274
a(I5320
I1
I1
I1
I1
I11
I2
I6
I3
I4
I3
I2
I19
I1
I2
I5
I6
I4
I9
I2
I3
I18
I1
I3
I3
I11
I1
I9
I73
I9
I117
I9
I8
I40
I45
I93
I40
I20
I157
I107
I55
I30
I135
I8
I25
I26
I351
I1
I2
I1
tp275
a(I5300
I3
I1
I11
I3
I5
I2
I2
I3
I3
I2
I1
I7
I8
I6
I5
I11
I5
I1
I3
I2
I7
I5
I195
I277
I8
I27
I21
I122
I19
I35
I70
I2
I6
I27
I75
I20
I29
I49
I142
I1
I3
I1
I1
I273
I1
I1
I1
I1
I1
tp276
a(I5306
I1
I1
I2
I1
I1
I11
I3
I3
I2
I4
I5
I6
I4
I2
I3
I3
I3
I7
I4
I8
I7
I8
I7
I32
I5
I53
I464
I1
I85
I18
I48
I14
I41
I4
I4
I23
I186
I2
I9
I5
I12
I95
I1
I1
I8
I287
I1
I2
I1
tp277
a(I5303
I7
I1
I5
I4
I1
I1
I2
I2
I2
I2
I14
I5
I6
I9
I6
I2
I4
I1
I8
I11
I1
I1
I7
I1
I21
I229
I2
I1
I376
I2
I2
I37
I7
I106
I6
I22
I64
I5
I27
I12
I6
I52
I1
I1
I13
I2
I374
I29
I1
tp278
a.